
bin/kernel.bin:     file format elf32-i386
bin/kernel.bin
architecture: i386, flags 0x00000112:
EXEC_P, HAS_SYMS, D_PAGED
start address 0x00100020

SYMBOL TABLE:
00100000 l    d  .text	00000000 .text
00110000 l    d  .rodata	00000000 .rodata
00110051 l    d  .rodata.str1.1	00000000 .rodata.str1.1
00110780 l    d  .eh_frame	00000000 .eh_frame
00115e7c l    d  .rodata.str1.4	00000000 .rodata.str1.4
001165f4 l    d  .rodata.cst4	00000000 .rodata.cst4
00117000 l    d  .data	00000000 .data
0011d000 l    d  .bss	00000000 .bss
00000000 l    df *ABS*	00000000 kernel/src/asm/boot.asm
00020000 l       *ABS*	00000000 STACKSZ
00000001 l       *ABS*	00000000 MBOOT_PAGE_ALIGN
00000002 l       *ABS*	00000000 MBOOT_MEM_INFO
1badb002 l       *ABS*	00000000 MBOOT_HEADER_MAGIC
00000003 l       *ABS*	00000000 MBOOT_HEADER_FLAGS
e4524ffb l       *ABS*	00000000 MBOOT_CHECKSUM
00000000 l    df *ABS*	00000000 cpu.cpp
00000000 l    df *ABS*	00000000 ctype.cpp
00000000 l    df *ABS*	00000000 gdt.cpp
00110000 l     O .rodata	00000001 _ZN4naos3HALL12KERNEL_FLAGSE
00110002 l     O .rodata	00000001 _ZN4naos3HALL16KERNEL_CS_ACCESSE
00110001 l     O .rodata	00000001 _ZN4naos3HALL16KERNEL_DS_ACCESSE
00000000 l    df *ABS*	00000000 idt.cpp
00119d00 l     O .data	00000074 _ZN4naos3HALL14EXCEPTION_MSGSE
00000000 l    df *ABS*	00000000 kernel/src/asm/irqs.asm
00108490 l       .text	00000000 exception_stub
001084be l       .text	00000000 irq_stub
00000000 l    df *ABS*	00000000 kernel.cpp
00000000 l    df *ABS*	00000000 kheap.cpp
00000000 l    df *ABS*	00000000 math.cpp
00000000 l    df *ABS*	00000000 paging.cpp
00000000 l    df *ABS*	00000000 pfalloc.cpp
00000000 l    df *ABS*	00000000 physmem.cpp
00110020 l     O .rodata	00000020 CSWTCH.36
00000000 l    df *ABS*	00000000 pit.cpp
00000000 l    df *ABS*	00000000 kernel/src/asm/realmode.asm
00000000 l       *ABS*	00000000 regs16_t
00000000 l       *ABS*	00000000 regs16_t.di
00000002 l       *ABS*	00000000 regs16_t.si
00000004 l       *ABS*	00000000 regs16_t.bp
00000006 l       *ABS*	00000000 regs16_t.sp
00000008 l       *ABS*	00000000 regs16_t.bx
0000000a l       *ABS*	00000000 regs16_t.dx
0000000c l       *ABS*	00000000 regs16_t.cx
0000000e l       *ABS*	00000000 regs16_t.ax
00000010 l       *ABS*	00000000 regs16_t.gs
00000012 l       *ABS*	00000000 regs16_t.fs
00000014 l       *ABS*	00000000 regs16_t.es
00000016 l       *ABS*	00000000 regs16_t.ds
00000018 l       *ABS*	00000000 regs16_t.ef
0000001a l       *ABS*	00000000 regs16_t_size
0010abc9 l       .text	00000000 reloc
0010ac04 l       .text	00000000 p_mode16
0010ac1e l       .text	00000000 r_mode16
0010ac38 l       .text	00000000 ib
0010ac5f l       .text	00000000 p_mode32
0010ac97 l       .text	00000000 resetpic
0010acb8 l       .text	00000000 stack32_ptr
0010acbc l       .text	00000000 idt32_ptr
0010acc2 l       .text	00000000 gdt32_ptr
0010acc8 l       .text	00000000 idt16_ptr
0010acce l       .text	00000000 gdt16_base
0010acce l       .text	00000000 gdt16_base.null
0010acd6 l       .text	00000000 gdt16_base.code32
0010acde l       .text	00000000 gdt16_base.data32
0010ace6 l       .text	00000000 gdt16_base.code16
0010acee l       .text	00000000 gdt16_base.data16
0010acf6 l       .text	00000000 gdt16_ptr
0010acfc l       .text	00000000 int32_end
00000000 l    df *ABS*	00000000 kernel/src/asm/registers.asm
0010ad0e l       .text	00000000 _gdt_flush.done
0010ad2b l       .text	00000000 _idt_flush.done
00000000 l    df *ABS*	00000000 serial.cpp
00000000 l    df *ABS*	00000000 stdio.cpp
00000000 l    df *ABS*	00000000 stdlib.cpp
0011c2ec l     O .data	00000004 _ZL10_rand_next
00110040 l     O .rodata	00000011 _ZL10HEX_VALUES
00000000 l    df *ABS*	00000000 string.cpp
0010e5c0 l     F .text	00000042 strlen.part.0
00000000 l    df *ABS*	00000000 ubsan.cpp
00000000 l    df *ABS*	00000000 virtmem.cpp
00108980 g     F .text	00000002 _ZN4naos6Kernel4LoopEv
001413e8 g     O .bss	00000004 _ZN4naos6Memory21PhysicalMemoryManager5_freeE
0013df00 g     O .bss	00000006 _ZN4naos3HAL3IDT8_idt_regE
0010f530 g     F .text	000000ef __ubsan_handle_type_mismatch
0010ed60 g     F .text	00000108 strcpy
00108380 g     F .text	0000009d _ZN4naos3HAL3IDT13UnregisterIRQENS0_3IRQE
00100030 g     F .text	00000018 _clr_cr0_em
001413b8 g     O .bss	00000004 _ZN4naos6Memory18PageFrameAllocator6_countE
00109590 g     F .text	00000285 _ZN4naos6Memory13PageDirectory8MapTableEjj
0010ab60 g     F .text	00000006 _ZN4naos3HAL25ProgrammableIntervalTimer9FrequencyEv
0010ad42 g       .text	00000000 _read_cr3
0010cd20 g     F .text	0000001a printf
0010f620 g     F .text	0000004c __ubsan_handle_add_overflow
0010efe0 g     F .text	00000338 strsplit
0014a40c g     O .bss	00000004 _ZN4naos3HAL25ProgrammableIntervalTimer6_timerE
00108dc0 g     F .text	000000e1 _ZN4naos6Memory10KernelHeap8AllocateEmb
001086c5 g       .text	00000000 irq128
001000b0 g     F .text	00000059 _ZN4naos3HAL3CPU9EnableSSEEv
0010e570 g     F .text	0000000d strerror
00108480 g     F .text	00000006 _ZN4naos3HAL3IDT9ProtocolsEv
001086e0 g     F .text	00000235 _ZN4naos6Kernel4BootEv
0010d3e0 g     F .text	000000ce _itoa_rev
00108519 g       .text	00000000 isr4
0010e840 g     F .text	00000003 memmove
001085f3 g       .text	00000000 isr27
0010856b g       .text	00000000 isr13
00108eb0 g     F .text	00000081 _ZN4naos6Memory10KernelHeap9NextEmptyEv
0014a404 g     O .bss	00000004 _ZN4naos3HAL25ProgrammableIntervalTimer13_millis_totalE
00109ad0 g     F .text	00000015 _ZN4naos6Memory18PageFrameAllocator4FreeEPNS0_9PageFrameE
0010cfe0 g     F .text	000001b6 atol
0010f430 g     F .text	00000070 strlower
0010869d g       .text	00000000 irq12
001082f0 g     F .text	00000088 _ZN4naos3HAL3IDT11RegisterIRQENS0_3IRQEPFvPNS0_12IDTRegistersEE
001089e0 g     F .text	00000116 _ZN4naos6Memory10KernelHeap11CreateBlockEjjmNS0_14HeapBlockStateE
001085c1 g       .text	00000000 isr22
00109050 g     F .text	0000005e ceil
0010857b g       .text	00000000 isr15
001413b4 g     O .bss	00000004 _ZN4naos6Memory10KernelHeap15_memblk_entriesE
001090b0 g     F .text	000000e8 floor
00108689 g       .text	00000000 irq10
001086b1 g       .text	00000000 irq14
0010db20 g     F .text	0000023c _ftoa_conv
001413c0 g     O .bss	00000004 _ZN4naos6Memory18PageFrameAllocator12_memblk_dataE
0010ccd0 g     F .text	0000002b _ZN4naos3HAL16SerialController4PortEv
0010ab70 g     F .text	00000006 _ZN4naos3HAL25ProgrammableIntervalTimer5TicksEv
0010aa20 g     F .text	00000006 _ZN4naos6Memory21PhysicalMemoryManager6UsableEv
00108549 g       .text	00000000 isr9
0010cbb0 g     F .text	000000b6 _ZN4naos3HAL16SerialController8ValidateEv
0010ad70 g     F .text	00000254 _ZN4naos3HAL16SerialController5StartENS0_10SerialPortE
00108675 g       .text	00000000 irq8
0010e7d0 g     F .text	00000035 memcpy
0014a410 g     O .bss	00000004 _ZN4naos3HAL25ProgrammableIntervalTimer6_ticksE
001085cb g       .text	00000000 isr23
0010d760 g     F .text	000002f2 _ultoa
00100630 g     F .text	00000030 _ZN4naos3HAL3CPU5IsMMXEv
0010e580 g     F .text	00000034 perror
00117000 g       .data	00000000 start_ctors
00108607 g       .text	00000000 isr29
0010b300 g     F .text	0000039e _ZN4naos3HAL16SerialController5PrintEPKc
0013d200 g     O .bss	00000006 _ZN4naos3HAL3GDT8_gdt_regE
00100710 g     F .text	00000011 islower
001007f0 g     F .text	00000011 tolower
0010e560 g     F .text	00000003 system
00108fd0 g     F .text	00000006 _ZN4naos6Memory10KernelHeap14VirtualAddressEv
0010d1a0 g     F .text	0000011c atox
0010cd40 g     F .text	00000003 malloc
0010da80 g     F .text	0000009f _ftoa_rev
0010861b g       .text	00000000 isr31
0011cb1b g       .data	00000000 _bss_start
0010a250 g     F .text	000000f8 _ZN4naos6Memory21PhysicalMemoryManager12FetchModulesEv
0014a400 g     O .bss	00000004 _ZN4naos3HAL25ProgrammableIntervalTimer8_secondsE
001413bc g     O .bss	00000004 _ZN4naos6Memory18PageFrameAllocator7_framesE
0010f8a0 g     F .text	0000004c __ubsan_handle_vla_bound_not_positive
0010d4b0 g     F .text	000002a4 itoa
001085b7 g       .text	00000000 isr21
0010ad4a g       .text	00000000 _read_eflags
001413a8 g     O .bss	00000004 _ZN4naos6Memory10KernelHeap6_countE
0014a414 g     O .bss	00000004 _ZN4naos3HAL25ProgrammableIntervalTimer5_freqE
00100750 g     F .text	0000002e ispunct
001089a0 g     F .text	00000006 _ZN4naos6Kernel10EndAddressEv
00108f50 g     F .text	00000003 _ZN4naos6Memory10KernelHeap5FetchEPv
00108693 g       .text	00000000 irq11
0010a940 g     F .text	000000d9 _ZN4naos6Memory21PhysicalMemoryManager11FirstByTypeENS0_10MemoryTypeE
00100070 g     F .text	00000018 _set_cr4_osfxsr
0014132c g     O .bss	00000002 _ZN4naos6Kernel6SerialE
001413c4 g     O .bss	00000004 _ZN4naos6Memory18PageFrameAllocator15_memblk_entriesE
00100780 g     F .text	0000001b isspace
0010f8f0 g     F .text	00000064 _ZN4naos6Memory20VirtualMemoryManager12SetDirectoryEPNS0_13PageDirectoryE
001085fd g       .text	00000000 isr28
0010ef70 g     F .text	00000065 stradd
0010e740 g     F .text	00000033 memcpy_sse
001005d0 g     F .text	00000023 _ZN4naos3HAL3CPU9FetchInfoEjPjS2_S2_S2_
00108541 g       .text	00000000 isr8
0010afd0 g     F .text	0000002d _ZN4naos3HAL16SerialController4StopEv
00108657 g       .text	00000000 irq5
00109830 g     F .text	00000073 _ZN4naos6Memory13PageDirectory9NextTableEv
00100e30 g     F .text	00000002 default_handler
0010cb70 g     F .text	00000032 _ZN4naos3HAL16SerialController11HasReceivedEv
00109cd0 g     F .text	0000020b _ZN4naos6Memory21PhysicalMemoryManager5PrintEv
0010f960 g     F .text	0000002b _ZN4naos6Memory20VirtualMemoryManager12EnablePagingEv
001007c0 g     F .text	00000026 isxdigit
001085ad g       .text	00000000 isr20
0014b000 g       .bss	00000000 _kernel_end
00108573 g       .text	00000000 isr14
00100d70 g     F .text	0000004d _ZN4naos3HAL3GDT15InitDescriptorsEv
0014a418 g       .bss	00000000 _bss_end
0010f990 g     F .text	00000037 _ZN4naos6Memory20VirtualMemoryManager13DisablePagingEv
00108920 g     F .text	0000005b kernel_entry
0010aa30 g     F .text	0000001e _ZN4naos6Memory21PhysicalMemoryManager10TypeStringENS0_10MemoryTypeE
00108523 g       .text	00000000 isr5
0010ef20 g     F .text	00000003 strrchr
001098f0 g     F .text	000000e1 _ZN4naos6Memory18PageFrameAllocator4InitEv
0010b880 g     F .text	00001268 _ZN4naos3HAL16SerialController9PrintVFMTEPKcPc
0010ad46 g       .text	00000000 _read_cr4
0010f9d0 g     F .text	0000010b _ZN4naos6Memory20VirtualMemoryManager9MapKernelEPNS0_13PageDirectoryE
0010f4e0 g     F .text	0000004c __ubsan_handle_out_of_bounds
0013d000 g       .bss	00000000 _stack_top
00108f60 g     F .text	00000051 _ZN4naos6Memory10KernelHeap4SizeEv
00119ceb g     O .data	00000001 IDT_EXCEPTION_ATTRS
0010d2c0 g     F .text	00000003 atof
0010ad1d g       .text	00000000 _idt_flush
0010f320 g     F .text	0000009e strwhite
0010b000 g     F .text	00000167 _ZN4naos3HAL16SerialController4ReadEv
0010ab40 g     F .text	00000014 _ZN4naos3HAL25ProgrammableIntervalTimer8ProtocolEPNS0_12IDTRegistersE
0010e850 g     F .text	000000d8 strcat
001098b0 g     F .text	00000036 _ZN4naos6Memory13PageDirectory10TableIndexEPNS0_9PageTableE
00108661 g       .text	00000000 irq6
0010cd00 g     F .text	00000019 vprintf
0010862f g       .text	00000000 irq1
001099e0 g     F .text	000000e9 _ZN4naos6Memory18PageFrameAllocator8AllocateEv
00101020 g     F .text	00004606 _ZN4naos3HAL3IDT14InitExceptionsEv
001413ac g     O .bss	00000004 _ZN4naos6Memory10KernelHeap7_blocksE
00100000 g       .text	00000000 _mboot
00107f80 g     F .text	000000f4 _ZN4naos3HAL3IDT4InitEv
0010f710 g     F .text	0000004c __ubsan_handle_negate_overflow
0010dd60 g     F .text	000000e2 ftoa
00109420 g     F .text	0000002f fmod
00100090 g     F .text	00000018 _set_cr4_osxmmexcpt
0010e610 g     F .text	0000006a memchr
0010ad3e g       .text	00000000 _read_cr2
00100020 g       .text	00000000 _start
0010ef40 g     F .text	00000003 strstr
0010d2d0 g     F .text	00000097 rand
00108501 g       .text	00000000 isr1
0010867f g       .text	00000000 irq9
001007a0 g     F .text	00000011 isupper
0010ebe0 g     F .text	00000177 strncmp
0010a350 g     F .text	0000007d _ZN4naos6Memory21PhysicalMemoryManager4InitEv
001091a0 g     F .text	00000078 pow
001085e9 g       .text	00000000 isr26
0010ee70 g     F .text	0000007d strncpy
0010855b g       .text	00000000 isr11
0010d380 g     F .text	00000054 _itoa_swap
00109820 g     F .text	0000000d _ZN4naos6Memory13PageDirectory5UnmapEj
00108990 g     F .text	00000006 _ZN4naos6Kernel12StartAddressEv
0010f6c0 g     F .text	0000004c __ubsan_handle_mul_overflow
00108460 g     F .text	00000012 _ZN4naos3HAL3IDT17InterruptsEnabledEv
00108b00 g     F .text	00000124 _ZN4naos6Memory10KernelHeap4InitEv
0013d100 g     O .bss	00000018 _ZN4naos3HAL3GDT8_entriesE
0010ef50 g     F .text	00000003 strtok
0010ad5d g       .text	00000000 _write_cr4
0010e680 g     F .text	000000b4 memcmp
0010cd70 g     F .text	000000a2 freearray
00108fe0 g     F .text	00000006 _ZN4naos6Memory10KernelHeap5CountEv
00100690 g     F .text	00000014 isalpha
0013df20 g     O .bss	0000340c _ZN4naos6Kernel7PageDirE
0010caf0 g     F .text	0000003a _ZN4naos3HAL16SerialController8PrintFMTEPKcz
00100600 g     F .text	00000030 _ZN4naos3HAL3CPU5IsSSEEv
0010e930 g     F .text	000000d8 strncat
0010f760 g     F .text	0000004c __ubsan_handle_divrem_overflow
00141340 g     O .bss	00000060 _ZN4naos6Kernel9MultibootE
0010cd50 g     F .text	00000003 tmalloc
00105630 g     F .text	00002946 _ZN4naos3HAL3IDT8InitIRQsEv
001413a4 g     O .bss	00000004 _ZN4naos6Memory10KernelHeap10_phys_addrE
001086a7 g       .text	00000000 irq13
00108563 g       .text	00000000 isr12
0010f7b0 g     F .text	0000004c __ubsan_handle_missing_return
00100050 g     F .text	00000018 _set_cr0_mp
00117000 g       .data	00000000 end_ctors
0010e810 g     F .text	00000030 memset
0010abb0 g       .text	00000000 int32
0010f4a0 g     F .text	0000003a strback
0010ef60 g     F .text	00000003 strxfrm
001084fa g       .text	00000000 isr0
00108639 g       .text	00000000 irq2
00141400 g     O .bss	00009000 _ZN4naos6Memory21PhysicalMemoryManager7_blocksE
00108fc0 g     F .text	00000006 _ZN4naos6Memory10KernelHeap15PhysicalAddressEv
001006f0 g     F .text	00000011 isgraph
0010e780 g     F .text	00000042 memset_sse
00100660 g     F .text	00000026 isalnum
00100dc0 g     F .text	00000063 _ZN4naos3HAL3GDT4InitEv
00100730 g     F .text	0000001c isprint
001085d5 g       .text	00000000 isr24
0014a408 g     O .bss	00000004 _ZN4naos3HAL25ProgrammableIntervalTimer7_millisE
0010ab80 g     F .text	00000006 _ZN4naos3HAL25ProgrammableIntervalTimer12MillisecondsEv
00108585 g       .text	00000000 isr16
0010ea70 g     F .text	00000163 strcmp
00108420 g     F .text	00000040 _ZN4naos3HAL3IDT11AcknowledgeEPNS0_12IDTRegistersE
00108c30 g     F .text	000000a9 _ZN4naos6Memory10KernelHeap12DestroyBlockEPNS0_9HeapBlockE
0010a0a0 g     F .text	000001ad _ZN4naos6Memory21PhysicalMemoryManager14FetchMemoryMapEv
00109450 g     F .text	0000012b _ZN4naos6Memory13PageDirectory4InitEj
00108080 g     F .text	00000263 _ZN4naos3HAL3IDT13SetDescriptorEhjNS0_8IDTFlagsEt
0010850f g       .text	00000000 isr3
0010fae0 g     F .text	00000033 _ZN4naos6Memory20VirtualMemoryManager4InitEv
00100110 g     F .text	000001d0 _ZN4naos3HAL3CPU6DetectEv
001413a0 g     O .bss	00000004 _ZN4naos6Memory10KernelHeap10_virt_addrE
0010eef0 g     F .text	00000003 strcspn
0010f850 g     F .text	0000004c __ubsan_handle_shift_out_of_bounds
0010da60 g     F .text	0000001d ltoa
0010f670 g     F .text	0000004c __ubsan_handle_sub_overflow
001089d0 g     F .text	00000003 _ZN4naos6Memory10KernelHeap5MergeEv
0010a3d0 g     F .text	00000493 _ZN4naos6Memory21PhysicalMemoryManager7RequestEmNS0_10MemoryTypeE
0010cb30 g     F .text	00000035 _ZN4naos3HAL16SerialController7CanSendEv
0010852d g       .text	00000000 isr6
0010866b g       .text	00000000 irq7
00100ed0 g     F .text	00000147 irq_handler
00109bd0 g     F .text	00000081 _ZN4naos6Memory18PageFrameAllocator4NextEv
00109af0 g     F .text	000000d7 _ZN4naos6Memory18PageFrameAllocator4FreeEj
0010abb0 g       .text	00000000 _int32
00108599 g       .text	00000000 isr18
0011d000 g       .bss	00000000 _stack_bottom
00109ee0 g     F .text	000001bd _ZN4naos6Memory21PhysicalMemoryManager3MapEjmNS0_10MemoryTypeE
00100830 g     F .text	00000531 _ZN4naos3HAL3GDT13SetDescriptorEhjjNS0_14GDTAccessFlagsENS0_8GDTFlagsE
001089b0 g     F .text	0000000b _ZN4naos6Kernel4SizeEv
001006d0 g     F .text	00000011 isdigit
0010de50 g     F .text	00000709 strhex
00108625 g       .text	00000000 irq0
0010aba0 g     F .text	00000006 _ZN4naos3HAL25ProgrammableIntervalTimer7SecondsEv
00109c60 g     F .text	0000006a zero_mem
0010aad0 g     F .text	00000065 _ZN4naos3HAL25ProgrammableIntervalTimer6UpdateEv
001413b0 g     O .bss	00000004 _ZN4naos6Memory10KernelHeap12_memblk_dataE
00108553 g       .text	00000000 isr10
0013d700 g     O .bss	00000800 _ZN4naos3HAL3IDT12_idt_entriesE
0010a870 g     F .text	000000c4 _ZN4naos6Memory21PhysicalMemoryManager4NextEv
0010d370 g     F .text	00000002 exit
0010f3c0 g     F .text	00000070 strupper
0010b6a0 g     F .text	000001d7 _ZN4naos3HAL16SerialController7PrintLnEPKc
0013d300 g     O .bss	00000400 _ZN4naos3HAL3IDT14_idt_protocolsE
0010ad4d g       .text	00000000 _write_cr0
0010ce20 g     F .text	000001b6 atoi
0010aa50 g     F .text	00000080 _ZN4naos3HAL25ProgrammableIntervalTimer4InitEv
001006b0 g     F .text	00000016 iscntrl
0010858f g       .text	00000000 isr17
00109030 g     F .text	00000017 clamp
00108508 g       .text	00000000 isr2
001413e0 g     O .bss	00000004 _ZN4naos6Memory21PhysicalMemoryManager7_usableE
001085a3 g       .text	00000000 isr19
0010ef30 g     F .text	00000003 strspn
00108611 g       .text	00000000 isr30
0010f800 g     F .text	0000004c __ubsan_handle_load_invalid_value
0010cc70 g     F .text	00000056 _ZN4naos3HAL16SerialController10PortStringENS0_10SerialPortE
0010ef00 g     F .text	00000010 strlen
00100000 g       .text	00000000 _kernel_start
0010ab90 g     F .text	00000006 _ZN4naos3HAL25ProgrammableIntervalTimer17TotalMillisecondsEv
00100810 g     F .text	00000011 toupper
00108ce0 g     F .text	000000d1 _ZN4naos6Memory10KernelHeap4NextEm
001002e0 g     F .text	000002ee _ZN4naos3HAL3CPU5PrintEv
0010ad00 g       .text	00000000 _gdt_flush
00108ff0 g     F .text	00000032 abs
001413e4 g     O .bss	00000004 _ZN4naos6Memory21PhysicalMemoryManager10_afterfreeE
001086bb g       .text	00000000 irq15
0010ea10 g     F .text	00000052 strchr
00108537 g       .text	00000000 isr7
0013d000 g     O .bss	00000071 _ZN4naos3HAL3CPU7InfoHdrE
001085df g       .text	00000000 isr25
0010ad55 g       .text	00000000 _write_cr3
0010ad3a g       .text	00000000 _read_cr0
00109220 g     F .text	000001f3 trunc
00119cea g     O .data	00000001 IDT_IRQ_ATTRS
00109580 g     F .text	00000003 _ZN4naos6Memory13PageDirectory3MapEjj
00108f40 g     F .text	00000003 _ZN4naos6Memory10KernelHeap7NearestEPNS0_9HeapBlockE
0010864d g       .text	00000000 irq4
0010ef10 g     F .text	00000003 strpbrk
00108643 g       .text	00000000 irq3
00100e40 g     F .text	00000090 exception_handler
0010cd60 g     F .text	00000003 free
0010fb20 g     F .text	000000a8 _ZN4naos6Memory20VirtualMemoryManager13MapKernelHeapEPNS0_13PageDirectoryE
0010b170 g     F .text	00000183 _ZN4naos3HAL16SerialController5WriteEc
001089c0 g     F .text	00000003 _ZN4naos6Memory10KernelHeap4FreeEPv



Disassembly of section .text:

00100000 <_kernel_start>:
  100000:	02 b0 ad 1b 03 00    	add    dh,BYTE PTR [eax+0x31bad]
  100006:	00 00                	add    BYTE PTR [eax],al
  100008:	fb                   	sti    
  100009:	4f                   	dec    edi
  10000a:	52                   	push   edx
  10000b:	e4 00                	in     al,0x0
  10000d:	00 10                	add    BYTE PTR [eax],dl
	...
  10001b:	00 20                	add    BYTE PTR [eax],ah
  10001d:	00 10                	add    BYTE PTR [eax],dl
	...

00100020 <_start>:
  100020:	fa                   	cli    
  100021:	bd 00 d0 13 00       	mov    ebp,0x13d000
  100026:	89 ec                	mov    esp,ebp
  100028:	53                   	push   ebx
  100029:	e8 f2 88 00 00       	call   108920 <kernel_entry>
  10002e:	fa                   	cli    
  10002f:	f4                   	hlt    

00100030 <_clr_cr0_em>:
  100030:	83 ec 0c             	sub    esp,0xc
  100033:	e8 02 ad 00 00       	call   10ad3a <_read_cr0>
  100038:	83 ec 0c             	sub    esp,0xc
  10003b:	83 e0 fb             	and    eax,0xfffffffb
  10003e:	50                   	push   eax
  10003f:	e8 09 ad 00 00       	call   10ad4d <_write_cr0>
  100044:	83 c4 1c             	add    esp,0x1c
  100047:	c3                   	ret    
  100048:	90                   	nop
  100049:	8d b4 26 00 00 00 00 	lea    esi,[esi+eiz*1+0x0]

00100050 <_set_cr0_mp>:
  100050:	83 ec 0c             	sub    esp,0xc
  100053:	e8 e2 ac 00 00       	call   10ad3a <_read_cr0>
  100058:	83 ec 0c             	sub    esp,0xc
  10005b:	83 c8 02             	or     eax,0x2
  10005e:	50                   	push   eax
  10005f:	e8 e9 ac 00 00       	call   10ad4d <_write_cr0>
  100064:	83 c4 1c             	add    esp,0x1c
  100067:	c3                   	ret    
  100068:	90                   	nop
  100069:	8d b4 26 00 00 00 00 	lea    esi,[esi+eiz*1+0x0]

00100070 <_set_cr4_osfxsr>:
  100070:	83 ec 0c             	sub    esp,0xc
  100073:	e8 ce ac 00 00       	call   10ad46 <_read_cr4>
  100078:	83 ec 0c             	sub    esp,0xc
  10007b:	80 cc 02             	or     ah,0x2
  10007e:	50                   	push   eax
  10007f:	e8 d9 ac 00 00       	call   10ad5d <_write_cr4>
  100084:	83 c4 1c             	add    esp,0x1c
  100087:	c3                   	ret    
  100088:	90                   	nop
  100089:	8d b4 26 00 00 00 00 	lea    esi,[esi+eiz*1+0x0]

00100090 <_set_cr4_osxmmexcpt>:
  100090:	83 ec 0c             	sub    esp,0xc
  100093:	e8 ae ac 00 00       	call   10ad46 <_read_cr4>
  100098:	83 ec 0c             	sub    esp,0xc
  10009b:	80 cc 04             	or     ah,0x4
  10009e:	50                   	push   eax
  10009f:	e8 b9 ac 00 00       	call   10ad5d <_write_cr4>
  1000a4:	83 c4 1c             	add    esp,0x1c
  1000a7:	c3                   	ret    
  1000a8:	90                   	nop
  1000a9:	8d b4 26 00 00 00 00 	lea    esi,[esi+eiz*1+0x0]

001000b0 <_ZN4naos3HAL3CPU9EnableSSEEv>:
  1000b0:	83 ec 0c             	sub    esp,0xc
  1000b3:	e8 82 ac 00 00       	call   10ad3a <_read_cr0>
  1000b8:	83 ec 0c             	sub    esp,0xc
  1000bb:	83 e0 fb             	and    eax,0xfffffffb
  1000be:	50                   	push   eax
  1000bf:	e8 89 ac 00 00       	call   10ad4d <_write_cr0>
  1000c4:	e8 71 ac 00 00       	call   10ad3a <_read_cr0>
  1000c9:	83 c8 02             	or     eax,0x2
  1000cc:	89 04 24             	mov    DWORD PTR [esp],eax
  1000cf:	e8 79 ac 00 00       	call   10ad4d <_write_cr0>
  1000d4:	e8 6d ac 00 00       	call   10ad46 <_read_cr4>
  1000d9:	80 cc 02             	or     ah,0x2
  1000dc:	89 04 24             	mov    DWORD PTR [esp],eax
  1000df:	e8 79 ac 00 00       	call   10ad5d <_write_cr4>
  1000e4:	e8 5d ac 00 00       	call   10ad46 <_read_cr4>
  1000e9:	80 cc 04             	or     ah,0x4
  1000ec:	89 04 24             	mov    DWORD PTR [esp],eax
  1000ef:	e8 69 ac 00 00       	call   10ad5d <_write_cr4>
  1000f4:	58                   	pop    eax
  1000f5:	5a                   	pop    edx
  1000f6:	68 51 00 11 00       	push   0x110051
  1000fb:	68 63 00 11 00       	push   0x110063
  100100:	e8 1b cc 00 00       	call   10cd20 <printf>
  100105:	83 c4 1c             	add    esp,0x1c
  100108:	c3                   	ret    
  100109:	90                   	nop
  10010a:	8d b6 00 00 00 00    	lea    esi,[esi+0x0]

00100110 <_ZN4naos3HAL3CPU6DetectEv>:
  100110:	56                   	push   esi
  100111:	53                   	push   ebx
  100112:	31 f6                	xor    esi,esi
  100114:	83 ec 48             	sub    esp,0x48
  100117:	6a 71                	push   0x71
  100119:	6a 00                	push   0x0
  10011b:	68 00 d0 13 00       	push   0x13d000
  100120:	e8 eb e6 00 00       	call   10e810 <memset>
  100125:	89 f0                	mov    eax,esi
  100127:	0f a2                	cpuid  
  100129:	89 5c 24 13          	mov    DWORD PTR [esp+0x13],ebx
  10012d:	89 4c 24 1b          	mov    DWORD PTR [esp+0x1b],ecx
  100131:	89 c6                	mov    esi,eax
  100133:	89 54 24 17          	mov    DWORD PTR [esp+0x17],edx
  100137:	5a                   	pop    edx
  100138:	59                   	pop    ecx
  100139:	8d 44 24 0b          	lea    eax,[esp+0xb]
  10013d:	50                   	push   eax
  10013e:	68 00 d0 13 00       	push   0x13d000
  100143:	e8 18 ec 00 00       	call   10ed60 <strcpy>
  100148:	83 c4 10             	add    esp,0x10
  10014b:	85 f6                	test   esi,esi
  10014d:	0f 84 d5 00 00 00    	je     100228 <_ZN4naos3HAL3CPU6DetectEv+0x118>
  100153:	b8 01 00 00 00       	mov    eax,0x1
  100158:	0f a2                	cpuid  
  10015a:	89 d0                	mov    eax,edx
  10015c:	88 0d 69 d0 13 00    	mov    BYTE PTR ds:0x13d069,cl
  100162:	80 25 69 d0 13 00 01 	and    BYTE PTR ds:0x13d069,0x1
  100169:	c1 e8 03             	shr    eax,0x3
  10016c:	83 e0 01             	and    eax,0x1
  10016f:	a2 60 d0 13 00       	mov    ds:0x13d060,al
  100174:	89 d0                	mov    eax,edx
  100176:	c1 e8 06             	shr    eax,0x6
  100179:	83 e0 01             	and    eax,0x1
  10017c:	a2 61 d0 13 00       	mov    ds:0x13d061,al
  100181:	89 d0                	mov    eax,edx
  100183:	c1 e8 09             	shr    eax,0x9
  100186:	83 e0 01             	and    eax,0x1
  100189:	a2 62 d0 13 00       	mov    ds:0x13d062,al
  10018e:	89 d0                	mov    eax,edx
  100190:	c1 e8 0c             	shr    eax,0xc
  100193:	83 e0 01             	and    eax,0x1
  100196:	a2 63 d0 13 00       	mov    ds:0x13d063,al
  10019b:	89 d0                	mov    eax,edx
  10019d:	c1 e8 17             	shr    eax,0x17
  1001a0:	83 e0 01             	and    eax,0x1
  1001a3:	a2 64 d0 13 00       	mov    ds:0x13d064,al
  1001a8:	89 d0                	mov    eax,edx
  1001aa:	c1 e8 04             	shr    eax,0x4
  1001ad:	83 e0 01             	and    eax,0x1
  1001b0:	a2 65 d0 13 00       	mov    ds:0x13d065,al
  1001b5:	89 d0                	mov    eax,edx
  1001b7:	c1 e8 05             	shr    eax,0x5
  1001ba:	83 e0 01             	and    eax,0x1
  1001bd:	a2 66 d0 13 00       	mov    ds:0x13d066,al
  1001c2:	89 d0                	mov    eax,edx
  1001c4:	c1 ea 1a             	shr    edx,0x1a
  1001c7:	c1 e8 19             	shr    eax,0x19
  1001ca:	83 e2 01             	and    edx,0x1
  1001cd:	83 e0 01             	and    eax,0x1
  1001d0:	88 15 68 d0 13 00    	mov    BYTE PTR ds:0x13d068,dl
  1001d6:	a2 67 d0 13 00       	mov    ds:0x13d067,al
  1001db:	89 c8                	mov    eax,ecx
  1001dd:	c1 e8 09             	shr    eax,0x9
  1001e0:	83 e0 01             	and    eax,0x1
  1001e3:	a2 6a d0 13 00       	mov    ds:0x13d06a,al
  1001e8:	89 c8                	mov    eax,ecx
  1001ea:	c1 e8 13             	shr    eax,0x13
  1001ed:	83 e0 01             	and    eax,0x1
  1001f0:	a2 6b d0 13 00       	mov    ds:0x13d06b,al
  1001f5:	89 c8                	mov    eax,ecx
  1001f7:	c1 e8 14             	shr    eax,0x14
  1001fa:	83 e0 01             	and    eax,0x1
  1001fd:	a2 6c d0 13 00       	mov    ds:0x13d06c,al
  100202:	89 c8                	mov    eax,ecx
  100204:	c1 e8 1c             	shr    eax,0x1c
  100207:	83 e0 01             	and    eax,0x1
  10020a:	a2 6d d0 13 00       	mov    ds:0x13d06d,al
  10020f:	89 c8                	mov    eax,ecx
  100211:	c1 e9 1e             	shr    ecx,0x1e
  100214:	c1 e8 1d             	shr    eax,0x1d
  100217:	83 e1 01             	and    ecx,0x1
  10021a:	83 e0 01             	and    eax,0x1
  10021d:	88 0d 6f d0 13 00    	mov    BYTE PTR ds:0x13d06f,cl
  100223:	a2 6e d0 13 00       	mov    ds:0x13d06e,al
  100228:	be 00 00 00 80       	mov    esi,0x80000000
  10022d:	89 f0                	mov    eax,esi
  10022f:	0f a2                	cpuid  
  100231:	3d 00 00 00 80       	cmp    eax,0x80000000
  100236:	89 c6                	mov    esi,eax
  100238:	76 75                	jbe    1002af <_ZN4naos3HAL3CPU6DetectEv+0x19f>
  10023a:	b8 01 00 00 80       	mov    eax,0x80000001
  10023f:	0f a2                	cpuid  
  100241:	c1 ea 1d             	shr    edx,0x1d
  100244:	83 e2 01             	and    edx,0x1
  100247:	81 fe 03 00 00 80    	cmp    esi,0x80000003
  10024d:	88 15 70 d0 13 00    	mov    BYTE PTR ds:0x13d070,dl
  100253:	76 5a                	jbe    1002af <_ZN4naos3HAL3CPU6DetectEv+0x19f>
  100255:	b8 02 00 00 80       	mov    eax,0x80000002
  10025a:	0f a2                	cpuid  
  10025c:	89 44 24 10          	mov    DWORD PTR [esp+0x10],eax
  100260:	89 5c 24 14          	mov    DWORD PTR [esp+0x14],ebx
  100264:	b8 03 00 00 80       	mov    eax,0x80000003
  100269:	89 4c 24 18          	mov    DWORD PTR [esp+0x18],ecx
  10026d:	89 54 24 1c          	mov    DWORD PTR [esp+0x1c],edx
  100271:	0f a2                	cpuid  
  100273:	89 44 24 20          	mov    DWORD PTR [esp+0x20],eax
  100277:	89 5c 24 24          	mov    DWORD PTR [esp+0x24],ebx
  10027b:	b8 04 00 00 80       	mov    eax,0x80000004
  100280:	89 4c 24 28          	mov    DWORD PTR [esp+0x28],ecx
  100284:	89 54 24 2c          	mov    DWORD PTR [esp+0x2c],edx
  100288:	0f a2                	cpuid  
  10028a:	89 44 24 30          	mov    DWORD PTR [esp+0x30],eax
  10028e:	89 5c 24 34          	mov    DWORD PTR [esp+0x34],ebx
  100292:	83 ec 08             	sub    esp,0x8
  100295:	89 4c 24 40          	mov    DWORD PTR [esp+0x40],ecx
  100299:	89 54 24 44          	mov    DWORD PTR [esp+0x44],edx
  10029d:	8d 44 24 18          	lea    eax,[esp+0x18]
  1002a1:	50                   	push   eax
  1002a2:	68 20 d0 13 00       	push   0x13d020
  1002a7:	e8 b4 ea 00 00       	call   10ed60 <strcpy>
  1002ac:	83 c4 10             	add    esp,0x10
  1002af:	0f b6 1d 67 d0 13 00 	movzx  ebx,BYTE PTR ds:0x13d067
  1002b6:	80 fb 01             	cmp    bl,0x1
  1002b9:	77 10                	ja     1002cb <_ZN4naos3HAL3CPU6DetectEv+0x1bb>
  1002bb:	83 e3 01             	and    ebx,0x1
  1002be:	74 05                	je     1002c5 <_ZN4naos3HAL3CPU6DetectEv+0x1b5>
  1002c0:	e8 eb fd ff ff       	call   1000b0 <_ZN4naos3HAL3CPU9EnableSSEEv>
  1002c5:	83 c4 44             	add    esp,0x44
  1002c8:	5b                   	pop    ebx
  1002c9:	5e                   	pop    esi
  1002ca:	c3                   	ret    
  1002cb:	50                   	push   eax
  1002cc:	50                   	push   eax
  1002cd:	0f b6 c3             	movzx  eax,bl
  1002d0:	50                   	push   eax
  1002d1:	68 10 70 11 00       	push   0x117010
  1002d6:	e8 25 f5 00 00       	call   10f800 <__ubsan_handle_load_invalid_value>
  1002db:	83 c4 10             	add    esp,0x10
  1002de:	eb db                	jmp    1002bb <_ZN4naos3HAL3CPU6DetectEv+0x1ab>

001002e0 <_ZN4naos3HAL3CPU5PrintEv>:
  1002e0:	53                   	push   ebx
  1002e1:	81 ec 9c 00 00 00    	sub    esp,0x9c
  1002e7:	68 80 00 00 00       	push   0x80
  1002ec:	6a 00                	push   0x0
  1002ee:	8d 5c 24 1c          	lea    ebx,[esp+0x1c]
  1002f2:	53                   	push   ebx
  1002f3:	e8 18 e5 00 00       	call   10e810 <memset>
  1002f8:	58                   	pop    eax
  1002f9:	5a                   	pop    edx
  1002fa:	68 7b 00 11 00       	push   0x11007b
  1002ff:	68 8d 00 11 00       	push   0x11008d
  100304:	e8 17 ca 00 00       	call   10cd20 <printf>
  100309:	83 c4 0c             	add    esp,0xc
  10030c:	68 20 d0 13 00       	push   0x13d020
  100311:	68 00 d0 13 00       	push   0x13d000
  100316:	68 a1 00 11 00       	push   0x1100a1
  10031b:	e8 00 ca 00 00       	call   10cd20 <printf>
  100320:	0f b6 05 70 d0 13 00 	movzx  eax,BYTE PTR ds:0x13d070
  100327:	83 c4 10             	add    esp,0x10
  10032a:	3c 01                	cmp    al,0x1
  10032c:	0f 87 f7 01 00 00    	ja     100529 <_ZN4naos3HAL3CPU5PrintEv+0x249>
  100332:	a8 01                	test   al,0x1
  100334:	ba 77 00 11 00       	mov    edx,0x110077
  100339:	b8 73 00 11 00       	mov    eax,0x110073
  10033e:	0f 44 c2             	cmove  eax,edx
  100341:	83 ec 08             	sub    esp,0x8
  100344:	50                   	push   eax
  100345:	68 ba 00 11 00       	push   0x1100ba
  10034a:	e8 d1 c9 00 00       	call   10cd20 <printf>
  10034f:	0f b6 05 67 d0 13 00 	movzx  eax,BYTE PTR ds:0x13d067
  100356:	83 c4 10             	add    esp,0x10
  100359:	3c 01                	cmp    al,0x1
  10035b:	0f 87 a7 01 00 00    	ja     100508 <_ZN4naos3HAL3CPU5PrintEv+0x228>
  100361:	a8 01                	test   al,0x1
  100363:	0f 85 47 01 00 00    	jne    1004b0 <_ZN4naos3HAL3CPU5PrintEv+0x1d0>
  100369:	0f b6 05 68 d0 13 00 	movzx  eax,BYTE PTR ds:0x13d068
  100370:	3c 01                	cmp    al,0x1
  100372:	0f 87 6f 01 00 00    	ja     1004e7 <_ZN4naos3HAL3CPU5PrintEv+0x207>
  100378:	a8 01                	test   al,0x1
  10037a:	0f 85 10 01 00 00    	jne    100490 <_ZN4naos3HAL3CPU5PrintEv+0x1b0>
  100380:	0f b6 05 69 d0 13 00 	movzx  eax,BYTE PTR ds:0x13d069
  100387:	3c 01                	cmp    al,0x1
  100389:	0f 87 37 01 00 00    	ja     1004c6 <_ZN4naos3HAL3CPU5PrintEv+0x1e6>
  10038f:	a8 01                	test   al,0x1
  100391:	0f 85 d9 00 00 00    	jne    100470 <_ZN4naos3HAL3CPU5PrintEv+0x190>
  100397:	0f b6 05 6a d0 13 00 	movzx  eax,BYTE PTR ds:0x13d06a
  10039e:	3c 01                	cmp    al,0x1
  1003a0:	0f 87 07 02 00 00    	ja     1005ad <_ZN4naos3HAL3CPU5PrintEv+0x2cd>
  1003a6:	a8 01                	test   al,0x1
  1003a8:	0f 85 a2 00 00 00    	jne    100450 <_ZN4naos3HAL3CPU5PrintEv+0x170>
  1003ae:	0f b6 05 6b d0 13 00 	movzx  eax,BYTE PTR ds:0x13d06b
  1003b5:	3c 01                	cmp    al,0x1
  1003b7:	0f 87 cf 01 00 00    	ja     10058c <_ZN4naos3HAL3CPU5PrintEv+0x2ac>
  1003bd:	a8 01                	test   al,0x1
  1003bf:	75 6f                	jne    100430 <_ZN4naos3HAL3CPU5PrintEv+0x150>
  1003c1:	0f b6 05 6c d0 13 00 	movzx  eax,BYTE PTR ds:0x13d06c
  1003c8:	3c 01                	cmp    al,0x1
  1003ca:	0f 87 9b 01 00 00    	ja     10056b <_ZN4naos3HAL3CPU5PrintEv+0x28b>
  1003d0:	a8 01                	test   al,0x1
  1003d2:	75 3c                	jne    100410 <_ZN4naos3HAL3CPU5PrintEv+0x130>
  1003d4:	0f b6 05 64 d0 13 00 	movzx  eax,BYTE PTR ds:0x13d064
  1003db:	3c 01                	cmp    al,0x1
  1003dd:	0f 87 67 01 00 00    	ja     10054a <_ZN4naos3HAL3CPU5PrintEv+0x26a>
  1003e3:	a8 01                	test   al,0x1
  1003e5:	74 11                	je     1003f8 <_ZN4naos3HAL3CPU5PrintEv+0x118>
  1003e7:	83 ec 08             	sub    esp,0x8
  1003ea:	68 ee 00 11 00       	push   0x1100ee
  1003ef:	53                   	push   ebx
  1003f0:	e8 5b e4 00 00       	call   10e850 <strcat>
  1003f5:	83 c4 10             	add    esp,0x10
  1003f8:	83 ec 08             	sub    esp,0x8
  1003fb:	53                   	push   ebx
  1003fc:	68 f3 00 11 00       	push   0x1100f3
  100401:	e8 1a c9 00 00       	call   10cd20 <printf>
  100406:	81 c4 a8 00 00 00    	add    esp,0xa8
  10040c:	5b                   	pop    ebx
  10040d:	c3                   	ret    
  10040e:	66 90                	xchg   ax,ax
  100410:	83 ec 08             	sub    esp,0x8
  100413:	68 e7 00 11 00       	push   0x1100e7
  100418:	53                   	push   ebx
  100419:	e8 32 e4 00 00       	call   10e850 <strcat>
  10041e:	83 c4 10             	add    esp,0x10
  100421:	eb b1                	jmp    1003d4 <_ZN4naos3HAL3CPU5PrintEv+0xf4>
  100423:	8d b6 00 00 00 00    	lea    esi,[esi+0x0]
  100429:	8d bc 27 00 00 00 00 	lea    edi,[edi+eiz*1+0x0]
  100430:	83 ec 08             	sub    esp,0x8
  100433:	68 e0 00 11 00       	push   0x1100e0
  100438:	53                   	push   ebx
  100439:	e8 12 e4 00 00       	call   10e850 <strcat>
  10043e:	83 c4 10             	add    esp,0x10
  100441:	e9 7b ff ff ff       	jmp    1003c1 <_ZN4naos3HAL3CPU5PrintEv+0xe1>
  100446:	8d 76 00             	lea    esi,[esi+0x0]
  100449:	8d bc 27 00 00 00 00 	lea    edi,[edi+eiz*1+0x0]
  100450:	83 ec 08             	sub    esp,0x8
  100453:	68 d9 00 11 00       	push   0x1100d9
  100458:	53                   	push   ebx
  100459:	e8 f2 e3 00 00       	call   10e850 <strcat>
  10045e:	83 c4 10             	add    esp,0x10
  100461:	e9 48 ff ff ff       	jmp    1003ae <_ZN4naos3HAL3CPU5PrintEv+0xce>
  100466:	8d 76 00             	lea    esi,[esi+0x0]
  100469:	8d bc 27 00 00 00 00 	lea    edi,[edi+eiz*1+0x0]
  100470:	83 ec 08             	sub    esp,0x8
  100473:	68 da 00 11 00       	push   0x1100da
  100478:	53                   	push   ebx
  100479:	e8 d2 e3 00 00       	call   10e850 <strcat>
  10047e:	83 c4 10             	add    esp,0x10
  100481:	e9 11 ff ff ff       	jmp    100397 <_ZN4naos3HAL3CPU5PrintEv+0xb7>
  100486:	8d 76 00             	lea    esi,[esi+0x0]
  100489:	8d bc 27 00 00 00 00 	lea    edi,[edi+eiz*1+0x0]
  100490:	83 ec 08             	sub    esp,0x8
  100493:	68 d3 00 11 00       	push   0x1100d3
  100498:	53                   	push   ebx
  100499:	e8 b2 e3 00 00       	call   10e850 <strcat>
  10049e:	83 c4 10             	add    esp,0x10
  1004a1:	e9 da fe ff ff       	jmp    100380 <_ZN4naos3HAL3CPU5PrintEv+0xa0>
  1004a6:	8d 76 00             	lea    esi,[esi+0x0]
  1004a9:	8d bc 27 00 00 00 00 	lea    edi,[edi+eiz*1+0x0]
  1004b0:	83 ec 08             	sub    esp,0x8
  1004b3:	68 ce 00 11 00       	push   0x1100ce
  1004b8:	53                   	push   ebx
  1004b9:	e8 92 e3 00 00       	call   10e850 <strcat>
  1004be:	83 c4 10             	add    esp,0x10
  1004c1:	e9 a3 fe ff ff       	jmp    100369 <_ZN4naos3HAL3CPU5PrintEv+0x89>
  1004c6:	52                   	push   edx
  1004c7:	52                   	push   edx
  1004c8:	0f b6 d0             	movzx  edx,al
  1004cb:	88 44 24 17          	mov    BYTE PTR [esp+0x17],al
  1004cf:	52                   	push   edx
  1004d0:	68 60 70 11 00       	push   0x117060
  1004d5:	e8 26 f3 00 00       	call   10f800 <__ubsan_handle_load_invalid_value>
  1004da:	83 c4 10             	add    esp,0x10
  1004dd:	0f b6 44 24 0f       	movzx  eax,BYTE PTR [esp+0xf]
  1004e2:	e9 a8 fe ff ff       	jmp    10038f <_ZN4naos3HAL3CPU5PrintEv+0xaf>
  1004e7:	51                   	push   ecx
  1004e8:	51                   	push   ecx
  1004e9:	0f b6 d0             	movzx  edx,al
  1004ec:	88 44 24 17          	mov    BYTE PTR [esp+0x17],al
  1004f0:	52                   	push   edx
  1004f1:	68 70 70 11 00       	push   0x117070
  1004f6:	e8 05 f3 00 00       	call   10f800 <__ubsan_handle_load_invalid_value>
  1004fb:	83 c4 10             	add    esp,0x10
  1004fe:	0f b6 44 24 0f       	movzx  eax,BYTE PTR [esp+0xf]
  100503:	e9 70 fe ff ff       	jmp    100378 <_ZN4naos3HAL3CPU5PrintEv+0x98>
  100508:	52                   	push   edx
  100509:	52                   	push   edx
  10050a:	0f b6 d0             	movzx  edx,al
  10050d:	88 44 24 17          	mov    BYTE PTR [esp+0x17],al
  100511:	52                   	push   edx
  100512:	68 80 70 11 00       	push   0x117080
  100517:	e8 e4 f2 00 00       	call   10f800 <__ubsan_handle_load_invalid_value>
  10051c:	83 c4 10             	add    esp,0x10
  10051f:	0f b6 44 24 0f       	movzx  eax,BYTE PTR [esp+0xf]
  100524:	e9 38 fe ff ff       	jmp    100361 <_ZN4naos3HAL3CPU5PrintEv+0x81>
  100529:	51                   	push   ecx
  10052a:	51                   	push   ecx
  10052b:	0f b6 d0             	movzx  edx,al
  10052e:	88 44 24 17          	mov    BYTE PTR [esp+0x17],al
  100532:	52                   	push   edx
  100533:	68 90 70 11 00       	push   0x117090
  100538:	e8 c3 f2 00 00       	call   10f800 <__ubsan_handle_load_invalid_value>
  10053d:	83 c4 10             	add    esp,0x10
  100540:	0f b6 44 24 0f       	movzx  eax,BYTE PTR [esp+0xf]
  100545:	e9 e8 fd ff ff       	jmp    100332 <_ZN4naos3HAL3CPU5PrintEv+0x52>
  10054a:	52                   	push   edx
  10054b:	52                   	push   edx
  10054c:	0f b6 d0             	movzx  edx,al
  10054f:	88 44 24 17          	mov    BYTE PTR [esp+0x17],al
  100553:	52                   	push   edx
  100554:	68 20 70 11 00       	push   0x117020
  100559:	e8 a2 f2 00 00       	call   10f800 <__ubsan_handle_load_invalid_value>
  10055e:	83 c4 10             	add    esp,0x10
  100561:	0f b6 44 24 0f       	movzx  eax,BYTE PTR [esp+0xf]
  100566:	e9 78 fe ff ff       	jmp    1003e3 <_ZN4naos3HAL3CPU5PrintEv+0x103>
  10056b:	51                   	push   ecx
  10056c:	51                   	push   ecx
  10056d:	0f b6 d0             	movzx  edx,al
  100570:	88 44 24 17          	mov    BYTE PTR [esp+0x17],al
  100574:	52                   	push   edx
  100575:	68 30 70 11 00       	push   0x117030
  10057a:	e8 81 f2 00 00       	call   10f800 <__ubsan_handle_load_invalid_value>
  10057f:	83 c4 10             	add    esp,0x10
  100582:	0f b6 44 24 0f       	movzx  eax,BYTE PTR [esp+0xf]
  100587:	e9 44 fe ff ff       	jmp    1003d0 <_ZN4naos3HAL3CPU5PrintEv+0xf0>
  10058c:	52                   	push   edx
  10058d:	52                   	push   edx
  10058e:	0f b6 d0             	movzx  edx,al
  100591:	88 44 24 17          	mov    BYTE PTR [esp+0x17],al
  100595:	52                   	push   edx
  100596:	68 40 70 11 00       	push   0x117040
  10059b:	e8 60 f2 00 00       	call   10f800 <__ubsan_handle_load_invalid_value>
  1005a0:	83 c4 10             	add    esp,0x10
  1005a3:	0f b6 44 24 0f       	movzx  eax,BYTE PTR [esp+0xf]
  1005a8:	e9 10 fe ff ff       	jmp    1003bd <_ZN4naos3HAL3CPU5PrintEv+0xdd>
  1005ad:	51                   	push   ecx
  1005ae:	51                   	push   ecx
  1005af:	0f b6 d0             	movzx  edx,al
  1005b2:	88 44 24 17          	mov    BYTE PTR [esp+0x17],al
  1005b6:	52                   	push   edx
  1005b7:	68 50 70 11 00       	push   0x117050
  1005bc:	e8 3f f2 00 00       	call   10f800 <__ubsan_handle_load_invalid_value>
  1005c1:	83 c4 10             	add    esp,0x10
  1005c4:	0f b6 44 24 0f       	movzx  eax,BYTE PTR [esp+0xf]
  1005c9:	e9 d8 fd ff ff       	jmp    1003a6 <_ZN4naos3HAL3CPU5PrintEv+0xc6>
  1005ce:	66 90                	xchg   ax,ax

001005d0 <_ZN4naos3HAL3CPU9FetchInfoEjPjS2_S2_S2_>:
  1005d0:	56                   	push   esi
  1005d1:	53                   	push   ebx
  1005d2:	8b 44 24 0c          	mov    eax,DWORD PTR [esp+0xc]
  1005d6:	0f a2                	cpuid  
  1005d8:	8b 74 24 10          	mov    esi,DWORD PTR [esp+0x10]
  1005dc:	89 06                	mov    DWORD PTR [esi],eax
  1005de:	8b 44 24 14          	mov    eax,DWORD PTR [esp+0x14]
  1005e2:	89 18                	mov    DWORD PTR [eax],ebx
  1005e4:	8b 44 24 18          	mov    eax,DWORD PTR [esp+0x18]
  1005e8:	89 08                	mov    DWORD PTR [eax],ecx
  1005ea:	8b 44 24 1c          	mov    eax,DWORD PTR [esp+0x1c]
  1005ee:	89 10                	mov    DWORD PTR [eax],edx
  1005f0:	5b                   	pop    ebx
  1005f1:	5e                   	pop    esi
  1005f2:	c3                   	ret    
  1005f3:	90                   	nop
  1005f4:	8d b6 00 00 00 00    	lea    esi,[esi+0x0]
  1005fa:	8d bf 00 00 00 00    	lea    edi,[edi+0x0]

00100600 <_ZN4naos3HAL3CPU5IsSSEEv>:
  100600:	0f b6 05 67 d0 13 00 	movzx  eax,BYTE PTR ds:0x13d067
  100607:	3c 01                	cmp    al,0x1
  100609:	77 04                	ja     10060f <_ZN4naos3HAL3CPU5IsSSEEv+0xf>
  10060b:	83 e0 01             	and    eax,0x1
  10060e:	c3                   	ret    
  10060f:	83 ec 24             	sub    esp,0x24
  100612:	0f b6 d0             	movzx  edx,al
  100615:	88 44 24 17          	mov    BYTE PTR [esp+0x17],al
  100619:	52                   	push   edx
  10061a:	68 10 70 11 00       	push   0x117010
  10061f:	e8 dc f1 00 00       	call   10f800 <__ubsan_handle_load_invalid_value>
  100624:	0f b6 44 24 1f       	movzx  eax,BYTE PTR [esp+0x1f]
  100629:	83 c4 2c             	add    esp,0x2c
  10062c:	83 e0 01             	and    eax,0x1
  10062f:	c3                   	ret    

00100630 <_ZN4naos3HAL3CPU5IsMMXEv>:
  100630:	0f b6 05 64 d0 13 00 	movzx  eax,BYTE PTR ds:0x13d064
  100637:	3c 01                	cmp    al,0x1
  100639:	77 04                	ja     10063f <_ZN4naos3HAL3CPU5IsMMXEv+0xf>
  10063b:	83 e0 01             	and    eax,0x1
  10063e:	c3                   	ret    
  10063f:	83 ec 24             	sub    esp,0x24
  100642:	0f b6 d0             	movzx  edx,al
  100645:	88 44 24 17          	mov    BYTE PTR [esp+0x17],al
  100649:	52                   	push   edx
  10064a:	68 00 70 11 00       	push   0x117000
  10064f:	e8 ac f1 00 00       	call   10f800 <__ubsan_handle_load_invalid_value>
  100654:	0f b6 44 24 1f       	movzx  eax,BYTE PTR [esp+0x1f]
  100659:	83 c4 2c             	add    esp,0x2c
  10065c:	83 e0 01             	and    eax,0x1
  10065f:	c3                   	ret    

00100660 <isalnum>:
  100660:	8b 54 24 04          	mov    edx,DWORD PTR [esp+0x4]
  100664:	b8 01 00 00 00       	mov    eax,0x1
  100669:	83 e2 df             	and    edx,0xffffffdf
  10066c:	83 ea 41             	sub    edx,0x41
  10066f:	83 fa 19             	cmp    edx,0x19
  100672:	76 10                	jbe    100684 <isalnum+0x24>
  100674:	8b 44 24 04          	mov    eax,DWORD PTR [esp+0x4]
  100678:	83 e8 30             	sub    eax,0x30
  10067b:	83 f8 09             	cmp    eax,0x9
  10067e:	0f 96 c0             	setbe  al
  100681:	0f b6 c0             	movzx  eax,al
  100684:	f3 c3                	repz ret 
  100686:	8d 76 00             	lea    esi,[esi+0x0]
  100689:	8d bc 27 00 00 00 00 	lea    edi,[edi+eiz*1+0x0]

00100690 <isalpha>:
  100690:	8b 44 24 04          	mov    eax,DWORD PTR [esp+0x4]
  100694:	83 e0 df             	and    eax,0xffffffdf
  100697:	83 e8 41             	sub    eax,0x41
  10069a:	83 f8 19             	cmp    eax,0x19
  10069d:	0f 96 c0             	setbe  al
  1006a0:	0f b6 c0             	movzx  eax,al
  1006a3:	c3                   	ret    
  1006a4:	8d b6 00 00 00 00    	lea    esi,[esi+0x0]
  1006aa:	8d bf 00 00 00 00    	lea    edi,[edi+0x0]

001006b0 <iscntrl>:
  1006b0:	8b 54 24 04          	mov    edx,DWORD PTR [esp+0x4]
  1006b4:	83 fa 7f             	cmp    edx,0x7f
  1006b7:	0f 94 c0             	sete   al
  1006ba:	83 fa 1f             	cmp    edx,0x1f
  1006bd:	0f 9e c2             	setle  dl
  1006c0:	09 d0                	or     eax,edx
  1006c2:	0f b6 c0             	movzx  eax,al
  1006c5:	c3                   	ret    
  1006c6:	8d 76 00             	lea    esi,[esi+0x0]
  1006c9:	8d bc 27 00 00 00 00 	lea    edi,[edi+eiz*1+0x0]

001006d0 <isdigit>:
  1006d0:	8b 44 24 04          	mov    eax,DWORD PTR [esp+0x4]
  1006d4:	83 e8 30             	sub    eax,0x30
  1006d7:	83 f8 09             	cmp    eax,0x9
  1006da:	0f 96 c0             	setbe  al
  1006dd:	0f b6 c0             	movzx  eax,al
  1006e0:	c3                   	ret    
  1006e1:	eb 0d                	jmp    1006f0 <isgraph>
  1006e3:	90                   	nop
  1006e4:	90                   	nop
  1006e5:	90                   	nop
  1006e6:	90                   	nop
  1006e7:	90                   	nop
  1006e8:	90                   	nop
  1006e9:	90                   	nop
  1006ea:	90                   	nop
  1006eb:	90                   	nop
  1006ec:	90                   	nop
  1006ed:	90                   	nop
  1006ee:	90                   	nop
  1006ef:	90                   	nop

001006f0 <isgraph>:
  1006f0:	8b 44 24 04          	mov    eax,DWORD PTR [esp+0x4]
  1006f4:	83 e8 21             	sub    eax,0x21
  1006f7:	83 f8 5d             	cmp    eax,0x5d
  1006fa:	0f 96 c0             	setbe  al
  1006fd:	0f b6 c0             	movzx  eax,al
  100700:	c3                   	ret    
  100701:	eb 0d                	jmp    100710 <islower>
  100703:	90                   	nop
  100704:	90                   	nop
  100705:	90                   	nop
  100706:	90                   	nop
  100707:	90                   	nop
  100708:	90                   	nop
  100709:	90                   	nop
  10070a:	90                   	nop
  10070b:	90                   	nop
  10070c:	90                   	nop
  10070d:	90                   	nop
  10070e:	90                   	nop
  10070f:	90                   	nop

00100710 <islower>:
  100710:	8b 44 24 04          	mov    eax,DWORD PTR [esp+0x4]
  100714:	83 e8 61             	sub    eax,0x61
  100717:	83 f8 19             	cmp    eax,0x19
  10071a:	0f 96 c0             	setbe  al
  10071d:	0f b6 c0             	movzx  eax,al
  100720:	c3                   	ret    
  100721:	eb 0d                	jmp    100730 <isprint>
  100723:	90                   	nop
  100724:	90                   	nop
  100725:	90                   	nop
  100726:	90                   	nop
  100727:	90                   	nop
  100728:	90                   	nop
  100729:	90                   	nop
  10072a:	90                   	nop
  10072b:	90                   	nop
  10072c:	90                   	nop
  10072d:	90                   	nop
  10072e:	90                   	nop
  10072f:	90                   	nop

00100730 <isprint>:
  100730:	8b 54 24 04          	mov    edx,DWORD PTR [esp+0x4]
  100734:	52                   	push   edx
  100735:	e8 b6 ff ff ff       	call   1006f0 <isgraph>
  10073a:	83 fa 20             	cmp    edx,0x20
  10073d:	0f 94 c2             	sete   dl
  100740:	85 c0                	test   eax,eax
  100742:	0f 95 c0             	setne  al
  100745:	09 d0                	or     eax,edx
  100747:	59                   	pop    ecx
  100748:	0f b6 c0             	movzx  eax,al
  10074b:	c3                   	ret    
  10074c:	8d 74 26 00          	lea    esi,[esi+eiz*1+0x0]

00100750 <ispunct>:
  100750:	8b 54 24 04          	mov    edx,DWORD PTR [esp+0x4]
  100754:	b8 01 00 00 00       	mov    eax,0x1
  100759:	8d 4a df             	lea    ecx,[edx-0x21]
  10075c:	83 f9 0e             	cmp    ecx,0xe
  10075f:	76 1b                	jbe    10077c <ispunct+0x2c>
  100761:	8d 4a c6             	lea    ecx,[edx-0x3a]
  100764:	83 f9 06             	cmp    ecx,0x6
  100767:	76 13                	jbe    10077c <ispunct+0x2c>
  100769:	8d 4a a5             	lea    ecx,[edx-0x5b]
  10076c:	83 f9 05             	cmp    ecx,0x5
  10076f:	76 0b                	jbe    10077c <ispunct+0x2c>
  100771:	83 ea 7b             	sub    edx,0x7b
  100774:	31 c0                	xor    eax,eax
  100776:	83 fa 03             	cmp    edx,0x3
  100779:	0f 96 c0             	setbe  al
  10077c:	f3 c3                	repz ret 
  10077e:	66 90                	xchg   ax,ax

00100780 <isspace>:
  100780:	8b 54 24 04          	mov    edx,DWORD PTR [esp+0x4]
  100784:	b8 01 00 00 00       	mov    eax,0x1
  100789:	83 fa 20             	cmp    edx,0x20
  10078c:	74 0b                	je     100799 <isspace+0x19>
  10078e:	83 ea 0c             	sub    edx,0xc
  100791:	31 c0                	xor    eax,eax
  100793:	83 fa 03             	cmp    edx,0x3
  100796:	0f 96 c0             	setbe  al
  100799:	f3 c3                	repz ret 
  10079b:	90                   	nop
  10079c:	8d 74 26 00          	lea    esi,[esi+eiz*1+0x0]

001007a0 <isupper>:
  1007a0:	8b 44 24 04          	mov    eax,DWORD PTR [esp+0x4]
  1007a4:	83 e8 41             	sub    eax,0x41
  1007a7:	83 f8 19             	cmp    eax,0x19
  1007aa:	0f 96 c0             	setbe  al
  1007ad:	0f b6 c0             	movzx  eax,al
  1007b0:	c3                   	ret    
  1007b1:	eb 0d                	jmp    1007c0 <isxdigit>
  1007b3:	90                   	nop
  1007b4:	90                   	nop
  1007b5:	90                   	nop
  1007b6:	90                   	nop
  1007b7:	90                   	nop
  1007b8:	90                   	nop
  1007b9:	90                   	nop
  1007ba:	90                   	nop
  1007bb:	90                   	nop
  1007bc:	90                   	nop
  1007bd:	90                   	nop
  1007be:	90                   	nop
  1007bf:	90                   	nop

001007c0 <isxdigit>:
  1007c0:	8b 54 24 04          	mov    edx,DWORD PTR [esp+0x4]
  1007c4:	b8 01 00 00 00       	mov    eax,0x1
  1007c9:	8d 4a d0             	lea    ecx,[edx-0x30]
  1007cc:	83 f9 09             	cmp    ecx,0x9
  1007cf:	76 13                	jbe    1007e4 <isxdigit+0x24>
  1007d1:	8d 4a bf             	lea    ecx,[edx-0x41]
  1007d4:	83 f9 05             	cmp    ecx,0x5
  1007d7:	76 0b                	jbe    1007e4 <isxdigit+0x24>
  1007d9:	83 ea 61             	sub    edx,0x61
  1007dc:	31 c0                	xor    eax,eax
  1007de:	83 fa 04             	cmp    edx,0x4
  1007e1:	0f 96 c0             	setbe  al
  1007e4:	f3 c3                	repz ret 
  1007e6:	8d 76 00             	lea    esi,[esi+0x0]
  1007e9:	8d bc 27 00 00 00 00 	lea    edi,[edi+eiz*1+0x0]

001007f0 <tolower>:
  1007f0:	8b 54 24 04          	mov    edx,DWORD PTR [esp+0x4]
  1007f4:	8d 4a bf             	lea    ecx,[edx-0x41]
  1007f7:	8d 42 20             	lea    eax,[edx+0x20]
  1007fa:	83 f9 1a             	cmp    ecx,0x1a
  1007fd:	0f 43 c2             	cmovae eax,edx
  100800:	c3                   	ret    
  100801:	eb 0d                	jmp    100810 <toupper>
  100803:	90                   	nop
  100804:	90                   	nop
  100805:	90                   	nop
  100806:	90                   	nop
  100807:	90                   	nop
  100808:	90                   	nop
  100809:	90                   	nop
  10080a:	90                   	nop
  10080b:	90                   	nop
  10080c:	90                   	nop
  10080d:	90                   	nop
  10080e:	90                   	nop
  10080f:	90                   	nop

00100810 <toupper>:
  100810:	8b 54 24 04          	mov    edx,DWORD PTR [esp+0x4]
  100814:	8d 4a 9f             	lea    ecx,[edx-0x61]
  100817:	8d 42 e0             	lea    eax,[edx-0x20]
  10081a:	83 f9 1a             	cmp    ecx,0x1a
  10081d:	0f 43 c2             	cmovae eax,edx
  100820:	c3                   	ret    
  100821:	66 90                	xchg   ax,ax
  100823:	66 90                	xchg   ax,ax
  100825:	66 90                	xchg   ax,ax
  100827:	66 90                	xchg   ax,ax
  100829:	66 90                	xchg   ax,ax
  10082b:	66 90                	xchg   ax,ax
  10082d:	66 90                	xchg   ax,ax
  10082f:	90                   	nop

00100830 <_ZN4naos3HAL3GDT13SetDescriptorEhjjNS0_14GDTAccessFlagsENS0_8GDTFlagsE>:
  100830:	55                   	push   ebp
  100831:	57                   	push   edi
  100832:	56                   	push   esi
  100833:	53                   	push   ebx
  100834:	83 ec 1c             	sub    esp,0x1c
  100837:	0f b6 5c 24 30       	movzx  ebx,BYTE PTR [esp+0x30]
  10083c:	8b 6c 24 34          	mov    ebp,DWORD PTR [esp+0x34]
  100840:	0f b6 44 24 3c       	movzx  eax,BYTE PTR [esp+0x3c]
  100845:	83 fb 02             	cmp    ebx,0x2
  100848:	0f 87 6e 02 00 00    	ja     100abc <_ZN4naos3HAL3GDT13SetDescriptorEhjjNS0_14GDTAccessFlagsENS0_8GDTFlagsE+0x28c>
  10084e:	8d 34 dd 00 00 00 00 	lea    esi,[ebx*8+0x0]
  100855:	b9 02 00 00 00       	mov    ecx,0x2
  10085a:	81 e9 00 d1 13 00    	sub    ecx,0x13d100
  100860:	8d 96 02 d1 13 00    	lea    edx,[esi+0x13d102]
  100866:	89 4c 24 08          	mov    DWORD PTR [esp+0x8],ecx
  10086a:	01 d1                	add    ecx,edx
  10086c:	83 f9 18             	cmp    ecx,0x18
  10086f:	0f 87 c6 04 00 00    	ja     100d3b <_ZN4naos3HAL3GDT13SetDescriptorEhjjNS0_14GDTAccessFlagsENS0_8GDTFlagsE+0x50b>
  100875:	89 ef                	mov    edi,ebp
  100877:	66 89 2c dd 02 d1 13 00 	mov    WORD PTR [ebx*8+0x13d102],bp
  10087f:	c1 ef 10             	shr    edi,0x10
  100882:	83 fb 02             	cmp    ebx,0x2
  100885:	89 7c 24 04          	mov    DWORD PTR [esp+0x4],edi
  100889:	0f 87 8e 04 00 00    	ja     100d1d <_ZN4naos3HAL3GDT13SetDescriptorEhjjNS0_14GDTAccessFlagsENS0_8GDTFlagsE+0x4ed>
  10088f:	8d 96 04 d1 13 00    	lea    edx,[esi+0x13d104]
  100895:	bf 01 00 00 00       	mov    edi,0x1
  10089a:	81 ef 00 d1 13 00    	sub    edi,0x13d100
  1008a0:	8d 0c 3a             	lea    ecx,[edx+edi*1]
  1008a3:	83 f9 18             	cmp    ecx,0x18
  1008a6:	0f 87 4b 04 00 00    	ja     100cf7 <_ZN4naos3HAL3GDT13SetDescriptorEhjjNS0_14GDTAccessFlagsENS0_8GDTFlagsE+0x4c7>
  1008ac:	0f b6 4c 24 04       	movzx  ecx,BYTE PTR [esp+0x4]
  1008b1:	88 0c dd 04 d1 13 00 	mov    BYTE PTR [ebx*8+0x13d104],cl
  1008b8:	89 e9                	mov    ecx,ebp
  1008ba:	c1 e9 18             	shr    ecx,0x18
  1008bd:	83 fb 02             	cmp    ebx,0x2
  1008c0:	0f 87 0b 04 00 00    	ja     100cd1 <_ZN4naos3HAL3GDT13SetDescriptorEhjjNS0_14GDTAccessFlagsENS0_8GDTFlagsE+0x4a1>
  1008c6:	8d 96 07 d1 13 00    	lea    edx,[esi+0x13d107]
  1008cc:	01 d7                	add    edi,edx
  1008ce:	83 ff 18             	cmp    edi,0x18
  1008d1:	0f 87 cc 03 00 00    	ja     100ca3 <_ZN4naos3HAL3GDT13SetDescriptorEhjjNS0_14GDTAccessFlagsENS0_8GDTFlagsE+0x473>
  1008d7:	83 fb 02             	cmp    ebx,0x2
  1008da:	88 0c dd 07 d1 13 00 	mov    BYTE PTR [ebx*8+0x13d107],cl
  1008e1:	0f 87 9e 03 00 00    	ja     100c85 <_ZN4naos3HAL3GDT13SetDescriptorEhjjNS0_14GDTAccessFlagsENS0_8GDTFlagsE+0x455>
  1008e7:	8b 54 24 08          	mov    edx,DWORD PTR [esp+0x8]
  1008eb:	81 c6 00 d1 13 00    	add    esi,0x13d100
  1008f1:	01 f2                	add    edx,esi
  1008f3:	83 fa 18             	cmp    edx,0x18
  1008f6:	0f 87 63 03 00 00    	ja     100c5f <_ZN4naos3HAL3GDT13SetDescriptorEhjjNS0_14GDTAccessFlagsENS0_8GDTFlagsE+0x42f>
  1008fc:	0f b7 74 24 38       	movzx  esi,WORD PTR [esp+0x38]
  100901:	8b 4c 24 38          	mov    ecx,DWORD PTR [esp+0x38]
  100905:	c1 e9 10             	shr    ecx,0x10
  100908:	83 fb 02             	cmp    ebx,0x2
  10090b:	66 89 34 dd 00 d1 13 00 	mov    WORD PTR [ebx*8+0x13d100],si
  100913:	0f 87 20 03 00 00    	ja     100c39 <_ZN4naos3HAL3GDT13SetDescriptorEhjjNS0_14GDTAccessFlagsENS0_8GDTFlagsE+0x409>
  100919:	0f b6 14 dd 06 d1 13 00 	movzx  edx,BYTE PTR [ebx*8+0x13d106]
  100921:	83 e1 0f             	and    ecx,0xf
  100924:	83 e2 f0             	and    edx,0xfffffff0
  100927:	09 ca                	or     edx,ecx
  100929:	83 fb 02             	cmp    ebx,0x2
  10092c:	88 14 dd 06 d1 13 00 	mov    BYTE PTR [ebx*8+0x13d106],dl
  100933:	0f 87 e2 02 00 00    	ja     100c1b <_ZN4naos3HAL3GDT13SetDescriptorEhjjNS0_14GDTAccessFlagsENS0_8GDTFlagsE+0x3eb>
  100939:	0f b6 14 dd 05 d1 13 00 	movzx  edx,BYTE PTR [ebx*8+0x13d105]
  100941:	89 c1                	mov    ecx,eax
  100943:	83 e1 01             	and    ecx,0x1
  100946:	83 e2 fe             	and    edx,0xfffffffe
  100949:	09 ca                	or     edx,ecx
  10094b:	83 fb 02             	cmp    ebx,0x2
  10094e:	88 14 dd 05 d1 13 00 	mov    BYTE PTR [ebx*8+0x13d105],dl
  100955:	0f 87 a2 02 00 00    	ja     100bfd <_ZN4naos3HAL3GDT13SetDescriptorEhjjNS0_14GDTAccessFlagsENS0_8GDTFlagsE+0x3cd>
  10095b:	0f b6 14 dd 05 d1 13 00 	movzx  edx,BYTE PTR [ebx*8+0x13d105]
  100963:	89 c1                	mov    ecx,eax
  100965:	83 e1 02             	and    ecx,0x2
  100968:	83 e2 fd             	and    edx,0xfffffffd
  10096b:	09 ca                	or     edx,ecx
  10096d:	83 fb 02             	cmp    ebx,0x2
  100970:	88 14 dd 05 d1 13 00 	mov    BYTE PTR [ebx*8+0x13d105],dl
  100977:	0f 87 62 02 00 00    	ja     100bdf <_ZN4naos3HAL3GDT13SetDescriptorEhjjNS0_14GDTAccessFlagsENS0_8GDTFlagsE+0x3af>
  10097d:	0f b6 14 dd 05 d1 13 00 	movzx  edx,BYTE PTR [ebx*8+0x13d105]
  100985:	89 c1                	mov    ecx,eax
  100987:	83 e1 04             	and    ecx,0x4
  10098a:	83 e2 fb             	and    edx,0xfffffffb
  10098d:	09 ca                	or     edx,ecx
  10098f:	83 fb 02             	cmp    ebx,0x2
  100992:	88 14 dd 05 d1 13 00 	mov    BYTE PTR [ebx*8+0x13d105],dl
  100999:	0f 87 22 02 00 00    	ja     100bc1 <_ZN4naos3HAL3GDT13SetDescriptorEhjjNS0_14GDTAccessFlagsENS0_8GDTFlagsE+0x391>
  10099f:	0f b6 14 dd 05 d1 13 00 	movzx  edx,BYTE PTR [ebx*8+0x13d105]
  1009a7:	89 c1                	mov    ecx,eax
  1009a9:	83 e1 08             	and    ecx,0x8
  1009ac:	83 e2 f7             	and    edx,0xfffffff7
  1009af:	09 ca                	or     edx,ecx
  1009b1:	83 fb 02             	cmp    ebx,0x2
  1009b4:	88 14 dd 05 d1 13 00 	mov    BYTE PTR [ebx*8+0x13d105],dl
  1009bb:	0f 87 e2 01 00 00    	ja     100ba3 <_ZN4naos3HAL3GDT13SetDescriptorEhjjNS0_14GDTAccessFlagsENS0_8GDTFlagsE+0x373>
  1009c1:	0f b6 14 dd 05 d1 13 00 	movzx  edx,BYTE PTR [ebx*8+0x13d105]
  1009c9:	89 c1                	mov    ecx,eax
  1009cb:	83 e1 10             	and    ecx,0x10
  1009ce:	83 e2 ef             	and    edx,0xffffffef
  1009d1:	09 ca                	or     edx,ecx
  1009d3:	83 fb 02             	cmp    ebx,0x2
  1009d6:	88 14 dd 05 d1 13 00 	mov    BYTE PTR [ebx*8+0x13d105],dl
  1009dd:	0f 87 a2 01 00 00    	ja     100b85 <_ZN4naos3HAL3GDT13SetDescriptorEhjjNS0_14GDTAccessFlagsENS0_8GDTFlagsE+0x355>
  1009e3:	0f b6 14 dd 05 d1 13 00 	movzx  edx,BYTE PTR [ebx*8+0x13d105]
  1009eb:	89 c1                	mov    ecx,eax
  1009ed:	83 e1 60             	and    ecx,0x60
  1009f0:	83 e2 9f             	and    edx,0xffffff9f
  1009f3:	09 ca                	or     edx,ecx
  1009f5:	83 fb 02             	cmp    ebx,0x2
  1009f8:	88 14 dd 05 d1 13 00 	mov    BYTE PTR [ebx*8+0x13d105],dl
  1009ff:	0f 87 62 01 00 00    	ja     100b67 <_ZN4naos3HAL3GDT13SetDescriptorEhjjNS0_14GDTAccessFlagsENS0_8GDTFlagsE+0x337>
  100a05:	0f b6 14 dd 05 d1 13 00 	movzx  edx,BYTE PTR [ebx*8+0x13d105]
  100a0d:	89 c1                	mov    ecx,eax
  100a0f:	83 e1 80             	and    ecx,0xffffff80
  100a12:	83 e2 7f             	and    edx,0x7f
  100a15:	09 ca                	or     edx,ecx
  100a17:	83 fb 02             	cmp    ebx,0x2
  100a1a:	88 14 dd 05 d1 13 00 	mov    BYTE PTR [ebx*8+0x13d105],dl
  100a21:	0f 87 22 01 00 00    	ja     100b49 <_ZN4naos3HAL3GDT13SetDescriptorEhjjNS0_14GDTAccessFlagsENS0_8GDTFlagsE+0x319>
  100a27:	0f b6 14 dd 06 d1 13 00 	movzx  edx,BYTE PTR [ebx*8+0x13d106]
  100a2f:	83 e2 ef             	and    edx,0xffffffef
  100a32:	83 fb 02             	cmp    ebx,0x2
  100a35:	88 14 dd 06 d1 13 00 	mov    BYTE PTR [ebx*8+0x13d106],dl
  100a3c:	0f 87 e1 00 00 00    	ja     100b23 <_ZN4naos3HAL3GDT13SetDescriptorEhjjNS0_14GDTAccessFlagsENS0_8GDTFlagsE+0x2f3>
  100a42:	0f b6 4c 24 40       	movzx  ecx,BYTE PTR [esp+0x40]
  100a47:	83 e2 df             	and    edx,0xffffffdf
  100a4a:	c1 e1 04             	shl    ecx,0x4
  100a4d:	83 e1 20             	and    ecx,0x20
  100a50:	09 ca                	or     edx,ecx
  100a52:	83 fb 02             	cmp    ebx,0x2
  100a55:	88 14 dd 06 d1 13 00 	mov    BYTE PTR [ebx*8+0x13d106],dl
  100a5c:	0f 87 9b 00 00 00    	ja     100afd <_ZN4naos3HAL3GDT13SetDescriptorEhjjNS0_14GDTAccessFlagsENS0_8GDTFlagsE+0x2cd>
  100a62:	0f b6 4c 24 40       	movzx  ecx,BYTE PTR [esp+0x40]
  100a67:	83 e2 bf             	and    edx,0xffffffbf
  100a6a:	c1 e1 04             	shl    ecx,0x4
  100a6d:	83 e1 40             	and    ecx,0x40
  100a70:	09 ca                	or     edx,ecx
  100a72:	83 fb 02             	cmp    ebx,0x2
  100a75:	88 14 dd 06 d1 13 00 	mov    BYTE PTR [ebx*8+0x13d106],dl
  100a7c:	77 5c                	ja     100ada <_ZN4naos3HAL3GDT13SetDescriptorEhjjNS0_14GDTAccessFlagsENS0_8GDTFlagsE+0x2aa>
  100a7e:	0f b6 4c 24 40       	movzx  ecx,BYTE PTR [esp+0x40]
  100a83:	83 ec 04             	sub    esp,0x4
  100a86:	83 e2 7f             	and    edx,0x7f
  100a89:	0f b6 74 24 44       	movzx  esi,BYTE PTR [esp+0x44]
  100a8e:	c0 e9 03             	shr    cl,0x3
  100a91:	56                   	push   esi
  100a92:	c1 e1 07             	shl    ecx,0x7
  100a95:	50                   	push   eax
  100a96:	ff 74 24 44          	push   DWORD PTR [esp+0x44]
  100a9a:	55                   	push   ebp
  100a9b:	09 ca                	or     edx,ecx
  100a9d:	53                   	push   ebx
  100a9e:	68 7b 00 11 00       	push   0x11007b
  100aa3:	68 7c 5e 11 00       	push   0x115e7c
  100aa8:	88 14 dd 06 d1 13 00 	mov    BYTE PTR [ebx*8+0x13d106],dl
  100aaf:	e8 6c c2 00 00       	call   10cd20 <printf>
  100ab4:	83 c4 3c             	add    esp,0x3c
  100ab7:	5b                   	pop    ebx
  100ab8:	5e                   	pop    esi
  100ab9:	5f                   	pop    edi
  100aba:	5d                   	pop    ebp
  100abb:	c3                   	ret    
  100abc:	88 44 24 04          	mov    BYTE PTR [esp+0x4],al
  100ac0:	50                   	push   eax
  100ac1:	50                   	push   eax
  100ac2:	53                   	push   ebx
  100ac3:	68 84 73 11 00       	push   0x117384
  100ac8:	e8 13 ea 00 00       	call   10f4e0 <__ubsan_handle_out_of_bounds>
  100acd:	83 c4 10             	add    esp,0x10
  100ad0:	0f b6 44 24 04       	movzx  eax,BYTE PTR [esp+0x4]
  100ad5:	e9 74 fd ff ff       	jmp    10084e <_ZN4naos3HAL3GDT13SetDescriptorEhjjNS0_14GDTAccessFlagsENS0_8GDTFlagsE+0x1e>
  100ada:	88 44 24 04          	mov    BYTE PTR [esp+0x4],al
  100ade:	50                   	push   eax
  100adf:	50                   	push   eax
  100ae0:	53                   	push   ebx
  100ae1:	68 ac 70 11 00       	push   0x1170ac
  100ae6:	e8 f5 e9 00 00       	call   10f4e0 <__ubsan_handle_out_of_bounds>
  100aeb:	83 c4 10             	add    esp,0x10
  100aee:	0f b6 14 dd 06 d1 13 00 	movzx  edx,BYTE PTR [ebx*8+0x13d106]
  100af6:	0f b6 44 24 04       	movzx  eax,BYTE PTR [esp+0x4]
  100afb:	eb 81                	jmp    100a7e <_ZN4naos3HAL3GDT13SetDescriptorEhjjNS0_14GDTAccessFlagsENS0_8GDTFlagsE+0x24e>
  100afd:	88 44 24 04          	mov    BYTE PTR [esp+0x4],al
  100b01:	52                   	push   edx
  100b02:	52                   	push   edx
  100b03:	53                   	push   ebx
  100b04:	68 d4 70 11 00       	push   0x1170d4
  100b09:	e8 d2 e9 00 00       	call   10f4e0 <__ubsan_handle_out_of_bounds>
  100b0e:	83 c4 10             	add    esp,0x10
  100b11:	0f b6 14 dd 06 d1 13 00 	movzx  edx,BYTE PTR [ebx*8+0x13d106]
  100b19:	0f b6 44 24 04       	movzx  eax,BYTE PTR [esp+0x4]
  100b1e:	e9 3f ff ff ff       	jmp    100a62 <_ZN4naos3HAL3GDT13SetDescriptorEhjjNS0_14GDTAccessFlagsENS0_8GDTFlagsE+0x232>
  100b23:	88 44 24 04          	mov    BYTE PTR [esp+0x4],al
  100b27:	51                   	push   ecx
  100b28:	51                   	push   ecx
  100b29:	53                   	push   ebx
  100b2a:	68 fc 70 11 00       	push   0x1170fc
  100b2f:	e8 ac e9 00 00       	call   10f4e0 <__ubsan_handle_out_of_bounds>
  100b34:	83 c4 10             	add    esp,0x10
  100b37:	0f b6 14 dd 06 d1 13 00 	movzx  edx,BYTE PTR [ebx*8+0x13d106]
  100b3f:	0f b6 44 24 04       	movzx  eax,BYTE PTR [esp+0x4]
  100b44:	e9 f9 fe ff ff       	jmp    100a42 <_ZN4naos3HAL3GDT13SetDescriptorEhjjNS0_14GDTAccessFlagsENS0_8GDTFlagsE+0x212>
  100b49:	88 44 24 04          	mov    BYTE PTR [esp+0x4],al
  100b4d:	56                   	push   esi
  100b4e:	56                   	push   esi
  100b4f:	53                   	push   ebx
  100b50:	68 24 71 11 00       	push   0x117124
  100b55:	e8 86 e9 00 00       	call   10f4e0 <__ubsan_handle_out_of_bounds>
  100b5a:	83 c4 10             	add    esp,0x10
  100b5d:	0f b6 44 24 04       	movzx  eax,BYTE PTR [esp+0x4]
  100b62:	e9 c0 fe ff ff       	jmp    100a27 <_ZN4naos3HAL3GDT13SetDescriptorEhjjNS0_14GDTAccessFlagsENS0_8GDTFlagsE+0x1f7>
  100b67:	88 44 24 04          	mov    BYTE PTR [esp+0x4],al
  100b6b:	57                   	push   edi
  100b6c:	57                   	push   edi
  100b6d:	53                   	push   ebx
  100b6e:	68 4c 71 11 00       	push   0x11714c
  100b73:	e8 68 e9 00 00       	call   10f4e0 <__ubsan_handle_out_of_bounds>
  100b78:	83 c4 10             	add    esp,0x10
  100b7b:	0f b6 44 24 04       	movzx  eax,BYTE PTR [esp+0x4]
  100b80:	e9 80 fe ff ff       	jmp    100a05 <_ZN4naos3HAL3GDT13SetDescriptorEhjjNS0_14GDTAccessFlagsENS0_8GDTFlagsE+0x1d5>
  100b85:	88 44 24 04          	mov    BYTE PTR [esp+0x4],al
  100b89:	50                   	push   eax
  100b8a:	50                   	push   eax
  100b8b:	53                   	push   ebx
  100b8c:	68 74 71 11 00       	push   0x117174
  100b91:	e8 4a e9 00 00       	call   10f4e0 <__ubsan_handle_out_of_bounds>
  100b96:	83 c4 10             	add    esp,0x10
  100b99:	0f b6 44 24 04       	movzx  eax,BYTE PTR [esp+0x4]
  100b9e:	e9 40 fe ff ff       	jmp    1009e3 <_ZN4naos3HAL3GDT13SetDescriptorEhjjNS0_14GDTAccessFlagsENS0_8GDTFlagsE+0x1b3>
  100ba3:	88 44 24 04          	mov    BYTE PTR [esp+0x4],al
  100ba7:	50                   	push   eax
  100ba8:	50                   	push   eax
  100ba9:	53                   	push   ebx
  100baa:	68 9c 71 11 00       	push   0x11719c
  100baf:	e8 2c e9 00 00       	call   10f4e0 <__ubsan_handle_out_of_bounds>
  100bb4:	83 c4 10             	add    esp,0x10
  100bb7:	0f b6 44 24 04       	movzx  eax,BYTE PTR [esp+0x4]
  100bbc:	e9 00 fe ff ff       	jmp    1009c1 <_ZN4naos3HAL3GDT13SetDescriptorEhjjNS0_14GDTAccessFlagsENS0_8GDTFlagsE+0x191>
  100bc1:	88 44 24 04          	mov    BYTE PTR [esp+0x4],al
  100bc5:	50                   	push   eax
  100bc6:	50                   	push   eax
  100bc7:	53                   	push   ebx
  100bc8:	68 c4 71 11 00       	push   0x1171c4
  100bcd:	e8 0e e9 00 00       	call   10f4e0 <__ubsan_handle_out_of_bounds>
  100bd2:	83 c4 10             	add    esp,0x10
  100bd5:	0f b6 44 24 04       	movzx  eax,BYTE PTR [esp+0x4]
  100bda:	e9 c0 fd ff ff       	jmp    10099f <_ZN4naos3HAL3GDT13SetDescriptorEhjjNS0_14GDTAccessFlagsENS0_8GDTFlagsE+0x16f>
  100bdf:	88 44 24 04          	mov    BYTE PTR [esp+0x4],al
  100be3:	50                   	push   eax
  100be4:	50                   	push   eax
  100be5:	53                   	push   ebx
  100be6:	68 ec 71 11 00       	push   0x1171ec
  100beb:	e8 f0 e8 00 00       	call   10f4e0 <__ubsan_handle_out_of_bounds>
  100bf0:	83 c4 10             	add    esp,0x10
  100bf3:	0f b6 44 24 04       	movzx  eax,BYTE PTR [esp+0x4]
  100bf8:	e9 80 fd ff ff       	jmp    10097d <_ZN4naos3HAL3GDT13SetDescriptorEhjjNS0_14GDTAccessFlagsENS0_8GDTFlagsE+0x14d>
  100bfd:	88 44 24 04          	mov    BYTE PTR [esp+0x4],al
  100c01:	50                   	push   eax
  100c02:	50                   	push   eax
  100c03:	53                   	push   ebx
  100c04:	68 14 72 11 00       	push   0x117214
  100c09:	e8 d2 e8 00 00       	call   10f4e0 <__ubsan_handle_out_of_bounds>
  100c0e:	83 c4 10             	add    esp,0x10
  100c11:	0f b6 44 24 04       	movzx  eax,BYTE PTR [esp+0x4]
  100c16:	e9 40 fd ff ff       	jmp    10095b <_ZN4naos3HAL3GDT13SetDescriptorEhjjNS0_14GDTAccessFlagsENS0_8GDTFlagsE+0x12b>
  100c1b:	88 44 24 04          	mov    BYTE PTR [esp+0x4],al
  100c1f:	50                   	push   eax
  100c20:	50                   	push   eax
  100c21:	53                   	push   ebx
  100c22:	68 3c 72 11 00       	push   0x11723c
  100c27:	e8 b4 e8 00 00       	call   10f4e0 <__ubsan_handle_out_of_bounds>
  100c2c:	83 c4 10             	add    esp,0x10
  100c2f:	0f b6 44 24 04       	movzx  eax,BYTE PTR [esp+0x4]
  100c34:	e9 00 fd ff ff       	jmp    100939 <_ZN4naos3HAL3GDT13SetDescriptorEhjjNS0_14GDTAccessFlagsENS0_8GDTFlagsE+0x109>
  100c39:	88 44 24 08          	mov    BYTE PTR [esp+0x8],al
  100c3d:	89 4c 24 04          	mov    DWORD PTR [esp+0x4],ecx
  100c41:	52                   	push   edx
  100c42:	52                   	push   edx
  100c43:	53                   	push   ebx
  100c44:	68 64 72 11 00       	push   0x117264
  100c49:	e8 92 e8 00 00       	call   10f4e0 <__ubsan_handle_out_of_bounds>
  100c4e:	83 c4 10             	add    esp,0x10
  100c51:	0f b6 44 24 08       	movzx  eax,BYTE PTR [esp+0x8]
  100c56:	8b 4c 24 04          	mov    ecx,DWORD PTR [esp+0x4]
  100c5a:	e9 ba fc ff ff       	jmp    100919 <_ZN4naos3HAL3GDT13SetDescriptorEhjjNS0_14GDTAccessFlagsENS0_8GDTFlagsE+0xe9>
  100c5f:	01 f2                	add    edx,esi
  100c61:	0f 82 95 fc ff ff    	jb     1008fc <_ZN4naos3HAL3GDT13SetDescriptorEhjjNS0_14GDTAccessFlagsENS0_8GDTFlagsE+0xcc>
  100c67:	88 44 24 04          	mov    BYTE PTR [esp+0x4],al
  100c6b:	51                   	push   ecx
  100c6c:	51                   	push   ecx
  100c6d:	56                   	push   esi
  100c6e:	68 8c 72 11 00       	push   0x11728c
  100c73:	e8 b8 e8 00 00       	call   10f530 <__ubsan_handle_type_mismatch>
  100c78:	83 c4 10             	add    esp,0x10
  100c7b:	0f b6 44 24 04       	movzx  eax,BYTE PTR [esp+0x4]
  100c80:	e9 77 fc ff ff       	jmp    1008fc <_ZN4naos3HAL3GDT13SetDescriptorEhjjNS0_14GDTAccessFlagsENS0_8GDTFlagsE+0xcc>
  100c85:	88 44 24 04          	mov    BYTE PTR [esp+0x4],al
  100c89:	57                   	push   edi
  100c8a:	57                   	push   edi
  100c8b:	53                   	push   ebx
  100c8c:	68 a4 72 11 00       	push   0x1172a4
  100c91:	e8 4a e8 00 00       	call   10f4e0 <__ubsan_handle_out_of_bounds>
  100c96:	83 c4 10             	add    esp,0x10
  100c99:	0f b6 44 24 04       	movzx  eax,BYTE PTR [esp+0x4]
  100c9e:	e9 44 fc ff ff       	jmp    1008e7 <_ZN4naos3HAL3GDT13SetDescriptorEhjjNS0_14GDTAccessFlagsENS0_8GDTFlagsE+0xb7>
  100ca3:	01 d7                	add    edi,edx
  100ca5:	0f 82 2c fc ff ff    	jb     1008d7 <_ZN4naos3HAL3GDT13SetDescriptorEhjjNS0_14GDTAccessFlagsENS0_8GDTFlagsE+0xa7>
  100cab:	88 44 24 0f          	mov    BYTE PTR [esp+0xf],al
  100caf:	89 4c 24 04          	mov    DWORD PTR [esp+0x4],ecx
  100cb3:	50                   	push   eax
  100cb4:	50                   	push   eax
  100cb5:	52                   	push   edx
  100cb6:	68 cc 72 11 00       	push   0x1172cc
  100cbb:	e8 70 e8 00 00       	call   10f530 <__ubsan_handle_type_mismatch>
  100cc0:	83 c4 10             	add    esp,0x10
  100cc3:	0f b6 44 24 0f       	movzx  eax,BYTE PTR [esp+0xf]
  100cc8:	8b 4c 24 04          	mov    ecx,DWORD PTR [esp+0x4]
  100ccc:	e9 06 fc ff ff       	jmp    1008d7 <_ZN4naos3HAL3GDT13SetDescriptorEhjjNS0_14GDTAccessFlagsENS0_8GDTFlagsE+0xa7>
  100cd1:	88 44 24 0f          	mov    BYTE PTR [esp+0xf],al
  100cd5:	89 4c 24 04          	mov    DWORD PTR [esp+0x4],ecx
  100cd9:	50                   	push   eax
  100cda:	50                   	push   eax
  100cdb:	53                   	push   ebx
  100cdc:	68 e4 72 11 00       	push   0x1172e4
  100ce1:	e8 fa e7 00 00       	call   10f4e0 <__ubsan_handle_out_of_bounds>
  100ce6:	83 c4 10             	add    esp,0x10
  100ce9:	0f b6 44 24 0f       	movzx  eax,BYTE PTR [esp+0xf]
  100cee:	8b 4c 24 04          	mov    ecx,DWORD PTR [esp+0x4]
  100cf2:	e9 cf fb ff ff       	jmp    1008c6 <_ZN4naos3HAL3GDT13SetDescriptorEhjjNS0_14GDTAccessFlagsENS0_8GDTFlagsE+0x96>
  100cf7:	01 d1                	add    ecx,edx
  100cf9:	0f 82 ad fb ff ff    	jb     1008ac <_ZN4naos3HAL3GDT13SetDescriptorEhjjNS0_14GDTAccessFlagsENS0_8GDTFlagsE+0x7c>
  100cff:	88 44 24 0f          	mov    BYTE PTR [esp+0xf],al
  100d03:	50                   	push   eax
  100d04:	50                   	push   eax
  100d05:	52                   	push   edx
  100d06:	68 0c 73 11 00       	push   0x11730c
  100d0b:	e8 20 e8 00 00       	call   10f530 <__ubsan_handle_type_mismatch>
  100d10:	83 c4 10             	add    esp,0x10
  100d13:	0f b6 44 24 0f       	movzx  eax,BYTE PTR [esp+0xf]
  100d18:	e9 8f fb ff ff       	jmp    1008ac <_ZN4naos3HAL3GDT13SetDescriptorEhjjNS0_14GDTAccessFlagsENS0_8GDTFlagsE+0x7c>
  100d1d:	88 44 24 0f          	mov    BYTE PTR [esp+0xf],al
  100d21:	50                   	push   eax
  100d22:	50                   	push   eax
  100d23:	53                   	push   ebx
  100d24:	68 34 73 11 00       	push   0x117334
  100d29:	e8 b2 e7 00 00       	call   10f4e0 <__ubsan_handle_out_of_bounds>
  100d2e:	83 c4 10             	add    esp,0x10
  100d31:	0f b6 44 24 0f       	movzx  eax,BYTE PTR [esp+0xf]
  100d36:	e9 54 fb ff ff       	jmp    10088f <_ZN4naos3HAL3GDT13SetDescriptorEhjjNS0_14GDTAccessFlagsENS0_8GDTFlagsE+0x5f>
  100d3b:	01 d1                	add    ecx,edx
  100d3d:	0f 82 32 fb ff ff    	jb     100875 <_ZN4naos3HAL3GDT13SetDescriptorEhjjNS0_14GDTAccessFlagsENS0_8GDTFlagsE+0x45>
  100d43:	88 44 24 04          	mov    BYTE PTR [esp+0x4],al
  100d47:	50                   	push   eax
  100d48:	50                   	push   eax
  100d49:	52                   	push   edx
  100d4a:	68 5c 73 11 00       	push   0x11735c
  100d4f:	e8 dc e7 00 00       	call   10f530 <__ubsan_handle_type_mismatch>
  100d54:	83 c4 10             	add    esp,0x10
  100d57:	0f b6 44 24 04       	movzx  eax,BYTE PTR [esp+0x4]
  100d5c:	e9 14 fb ff ff       	jmp    100875 <_ZN4naos3HAL3GDT13SetDescriptorEhjjNS0_14GDTAccessFlagsENS0_8GDTFlagsE+0x45>
  100d61:	90                   	nop
  100d62:	8d b4 26 00 00 00 00 	lea    esi,[esi+eiz*1+0x0]
  100d69:	8d bc 27 00 00 00 00 	lea    edi,[edi+eiz*1+0x0]

00100d70 <_ZN4naos3HAL3GDT15InitDescriptorsEv>:
  100d70:	53                   	push   ebx
  100d71:	83 ec 14             	sub    esp,0x14
  100d74:	6a 00                	push   0x0
  100d76:	6a 00                	push   0x0
  100d78:	6a 00                	push   0x0
  100d7a:	6a 00                	push   0x0
  100d7c:	6a 00                	push   0x0
  100d7e:	e8 ad fa ff ff       	call   100830 <_ZN4naos3HAL3GDT13SetDescriptorEhjjNS0_14GDTAccessFlagsENS0_8GDTFlagsE>
  100d83:	0f b6 1d 00 00 11 00 	movzx  ebx,BYTE PTR ds:0x110000
  100d8a:	0f b6 05 02 00 11 00 	movzx  eax,BYTE PTR ds:0x110002
  100d91:	83 c4 14             	add    esp,0x14
  100d94:	53                   	push   ebx
  100d95:	50                   	push   eax
  100d96:	6a ff                	push   0xffffffff
  100d98:	6a 00                	push   0x0
  100d9a:	6a 01                	push   0x1
  100d9c:	e8 8f fa ff ff       	call   100830 <_ZN4naos3HAL3GDT13SetDescriptorEhjjNS0_14GDTAccessFlagsENS0_8GDTFlagsE>
  100da1:	0f b6 05 01 00 11 00 	movzx  eax,BYTE PTR ds:0x110001
  100da8:	83 c4 14             	add    esp,0x14
  100dab:	53                   	push   ebx
  100dac:	50                   	push   eax
  100dad:	6a ff                	push   0xffffffff
  100daf:	6a 00                	push   0x0
  100db1:	6a 02                	push   0x2
  100db3:	e8 78 fa ff ff       	call   100830 <_ZN4naos3HAL3GDT13SetDescriptorEhjjNS0_14GDTAccessFlagsENS0_8GDTFlagsE>
  100db8:	83 c4 28             	add    esp,0x28
  100dbb:	5b                   	pop    ebx
  100dbc:	c3                   	ret    
  100dbd:	90                   	nop
  100dbe:	66 90                	xchg   ax,ax

00100dc0 <_ZN4naos3HAL3GDT4InitEv>:
  100dc0:	83 ec 10             	sub    esp,0x10
  100dc3:	6a 00                	push   0x0
  100dc5:	6a 00                	push   0x0
  100dc7:	68 00 d1 13 00       	push   0x13d100
  100dcc:	e8 3f da 00 00       	call   10e810 <memset>
  100dd1:	5a                   	pop    edx
  100dd2:	59                   	pop    ecx
  100dd3:	68 7b 00 11 00       	push   0x11007b
  100dd8:	68 c0 5e 11 00       	push   0x115ec0
  100ddd:	b8 ff ff ff ff       	mov    eax,0xffffffff
  100de2:	66 a3 00 d2 13 00    	mov    ds:0x13d200,ax
  100de8:	c7 05 02 d2 13 00 00 d1 13 00 	mov    DWORD PTR ds:0x13d202,0x13d100
  100df2:	e8 29 bf 00 00       	call   10cd20 <printf>
  100df7:	e8 74 ff ff ff       	call   100d70 <_ZN4naos3HAL3GDT15InitDescriptorsEv>
  100dfc:	c7 04 24 00 d2 13 00 	mov    DWORD PTR [esp],0x13d200
  100e03:	e8 f8 9e 00 00       	call   10ad00 <_gdt_flush>
  100e08:	83 c4 0c             	add    esp,0xc
  100e0b:	68 00 d2 13 00       	push   0x13d200
  100e10:	68 51 00 11 00       	push   0x110051
  100e15:	68 e0 5e 11 00       	push   0x115ee0
  100e1a:	e8 01 bf 00 00       	call   10cd20 <printf>
  100e1f:	83 c4 1c             	add    esp,0x1c
  100e22:	c3                   	ret    
  100e23:	66 90                	xchg   ax,ax
  100e25:	66 90                	xchg   ax,ax
  100e27:	66 90                	xchg   ax,ax
  100e29:	66 90                	xchg   ax,ax
  100e2b:	66 90                	xchg   ax,ax
  100e2d:	66 90                	xchg   ax,ax
  100e2f:	90                   	nop

00100e30 <default_handler>:
  100e30:	f3 c3                	repz ret 
  100e32:	8d b4 26 00 00 00 00 	lea    esi,[esi+eiz*1+0x0]
  100e39:	8d bc 27 00 00 00 00 	lea    edi,[edi+eiz*1+0x0]

00100e40 <exception_handler>:
  100e40:	53                   	push   ebx
  100e41:	83 ec 08             	sub    esp,0x8
  100e44:	8b 5c 24 10          	mov    ebx,DWORD PTR [esp+0x10]
  100e48:	fa                   	cli    
  100e49:	85 db                	test   ebx,ebx
  100e4b:	74 5a                	je     100ea7 <exception_handler+0x67>
  100e4d:	8b 5b 20             	mov    ebx,DWORD PTR [ebx+0x20]
  100e50:	83 fb 1c             	cmp    ebx,0x1c
  100e53:	77 3b                	ja     100e90 <exception_handler+0x50>
  100e55:	8d 04 9d 00 9d 11 00 	lea    eax,[ebx*4+0x119d00]
  100e5c:	89 c2                	mov    edx,eax
  100e5e:	81 ea fc 9c 11 00    	sub    edx,0x119cfc
  100e64:	83 fa 74             	cmp    edx,0x74
  100e67:	77 51                	ja     100eba <exception_handler+0x7a>
  100e69:	83 ec 04             	sub    esp,0x4
  100e6c:	ff 34 9d 00 9d 11 00 	push   DWORD PTR [ebx*4+0x119d00]
  100e73:	68 3a 01 11 00       	push   0x11013a
  100e78:	68 62 01 11 00       	push   0x110162
  100e7d:	e8 9e be 00 00       	call   10cd20 <printf>
  100e82:	83 c4 10             	add    esp,0x10
  100e85:	f4                   	hlt    
  100e86:	83 c4 08             	add    esp,0x8
  100e89:	5b                   	pop    ebx
  100e8a:	c3                   	ret    
  100e8b:	90                   	nop
  100e8c:	8d 74 26 00          	lea    esi,[esi+eiz*1+0x0]
  100e90:	83 ec 08             	sub    esp,0x8
  100e93:	68 3a 01 11 00       	push   0x11013a
  100e98:	68 4c 01 11 00       	push   0x11014c
  100e9d:	e8 7e be 00 00       	call   10cd20 <printf>
  100ea2:	83 c4 10             	add    esp,0x10
  100ea5:	eb de                	jmp    100e85 <exception_handler+0x45>
  100ea7:	51                   	push   ecx
  100ea8:	51                   	push   ecx
  100ea9:	6a 00                	push   0x0
  100eab:	68 b8 9c 11 00       	push   0x119cb8
  100eb0:	e8 7b e6 00 00       	call   10f530 <__ubsan_handle_type_mismatch>
  100eb5:	83 c4 10             	add    esp,0x10
  100eb8:	eb 93                	jmp    100e4d <exception_handler+0xd>
  100eba:	01 c2                	add    edx,eax
  100ebc:	72 ab                	jb     100e69 <exception_handler+0x29>
  100ebe:	52                   	push   edx
  100ebf:	52                   	push   edx
  100ec0:	50                   	push   eax
  100ec1:	68 50 9c 11 00       	push   0x119c50
  100ec6:	e8 65 e6 00 00       	call   10f530 <__ubsan_handle_type_mismatch>
  100ecb:	83 c4 10             	add    esp,0x10
  100ece:	eb 99                	jmp    100e69 <exception_handler+0x29>

00100ed0 <irq_handler>:
  100ed0:	55                   	push   ebp
  100ed1:	57                   	push   edi
  100ed2:	56                   	push   esi
  100ed3:	53                   	push   ebx
  100ed4:	83 ec 1c             	sub    esp,0x1c
  100ed7:	8b 74 24 30          	mov    esi,DWORD PTR [esp+0x30]
  100edb:	85 f6                	test   esi,esi
  100edd:	0f 84 db 00 00 00    	je     100fbe <irq_handler+0xee>
  100ee3:	8b 7e 20             	mov    edi,DWORD PTR [esi+0x20]
  100ee6:	8d 1c bd 00 00 00 00 	lea    ebx,[edi*4+0x0]
  100eed:	89 dd                	mov    ebp,ebx
  100eef:	81 c5 00 d3 13 00    	add    ebp,0x13d300
  100ef5:	0f 84 ad 00 00 00    	je     100fa8 <irq_handler+0xd8>
  100efb:	83 c3 04             	add    ebx,0x4
  100efe:	81 fb 00 04 00 00    	cmp    ebx,0x400
  100f04:	0f 87 7f 00 00 00    	ja     100f89 <irq_handler+0xb9>
  100f0a:	8b 04 bd 00 d3 13 00 	mov    eax,DWORD PTR [edi*4+0x13d300]
  100f11:	85 c0                	test   eax,eax
  100f13:	74 2b                	je     100f40 <irq_handler+0x70>
  100f15:	85 ed                	test   ebp,ebp
  100f17:	0f 84 dc 00 00 00    	je     100ff9 <irq_handler+0x129>
  100f1d:	81 fb 00 04 00 00    	cmp    ebx,0x400
  100f23:	0f 87 ab 00 00 00    	ja     100fd4 <irq_handler+0x104>
  100f29:	89 74 24 30          	mov    DWORD PTR [esp+0x30],esi
  100f2d:	83 c4 1c             	add    esp,0x1c
  100f30:	5b                   	pop    ebx
  100f31:	5e                   	pop    esi
  100f32:	5f                   	pop    edi
  100f33:	5d                   	pop    ebp
  100f34:	ff e0                	jmp    eax
  100f36:	8d 76 00             	lea    esi,[esi+0x0]
  100f39:	8d bc 27 00 00 00 00 	lea    edi,[edi+eiz*1+0x0]
  100f40:	83 ff 20             	cmp    edi,0x20
  100f43:	75 1b                	jne    100f60 <irq_handler+0x90>
  100f45:	b8 20 00 00 00       	mov    eax,0x20
  100f4a:	ba 20 00 00 00       	mov    edx,0x20
  100f4f:	ee                   	out    dx,al
  100f50:	83 c4 1c             	add    esp,0x1c
  100f53:	5b                   	pop    ebx
  100f54:	5e                   	pop    esi
  100f55:	5f                   	pop    edi
  100f56:	5d                   	pop    ebp
  100f57:	c3                   	ret    
  100f58:	90                   	nop
  100f59:	8d b4 26 00 00 00 00 	lea    esi,[esi+eiz*1+0x0]
  100f60:	83 ec 04             	sub    esp,0x4
  100f63:	57                   	push   edi
  100f64:	68 73 01 11 00       	push   0x110173
  100f69:	68 85 01 11 00       	push   0x110185
  100f6e:	e8 ad bd 00 00       	call   10cd20 <printf>
  100f73:	83 c4 10             	add    esp,0x10
  100f76:	83 7e 20 27          	cmp    DWORD PTR [esi+0x20],0x27
  100f7a:	76 c9                	jbe    100f45 <irq_handler+0x75>
  100f7c:	b8 20 00 00 00       	mov    eax,0x20
  100f81:	ba a0 00 00 00       	mov    edx,0xa0
  100f86:	ee                   	out    dx,al
  100f87:	eb bc                	jmp    100f45 <irq_handler+0x75>
  100f89:	89 e8                	mov    eax,ebp
  100f8b:	01 d8                	add    eax,ebx
  100f8d:	0f 82 77 ff ff ff    	jb     100f0a <irq_handler+0x3a>
  100f93:	51                   	push   ecx
  100f94:	51                   	push   ecx
  100f95:	55                   	push   ebp
  100f96:	68 f4 9b 11 00       	push   0x119bf4
  100f9b:	e8 90 e5 00 00       	call   10f530 <__ubsan_handle_type_mismatch>
  100fa0:	83 c4 10             	add    esp,0x10
  100fa3:	e9 62 ff ff ff       	jmp    100f0a <irq_handler+0x3a>
  100fa8:	50                   	push   eax
  100fa9:	50                   	push   eax
  100faa:	6a 00                	push   0x0
  100fac:	68 0c 9c 11 00       	push   0x119c0c
  100fb1:	e8 7a e5 00 00       	call   10f530 <__ubsan_handle_type_mismatch>
  100fb6:	83 c4 10             	add    esp,0x10
  100fb9:	e9 3d ff ff ff       	jmp    100efb <irq_handler+0x2b>
  100fbe:	50                   	push   eax
  100fbf:	50                   	push   eax
  100fc0:	6a 00                	push   0x0
  100fc2:	68 38 9c 11 00       	push   0x119c38
  100fc7:	e8 64 e5 00 00       	call   10f530 <__ubsan_handle_type_mismatch>
  100fcc:	83 c4 10             	add    esp,0x10
  100fcf:	e9 0f ff ff ff       	jmp    100ee3 <irq_handler+0x13>
  100fd4:	01 eb                	add    ebx,ebp
  100fd6:	0f 82 4d ff ff ff    	jb     100f29 <irq_handler+0x59>
  100fdc:	89 44 24 0c          	mov    DWORD PTR [esp+0xc],eax
  100fe0:	50                   	push   eax
  100fe1:	50                   	push   eax
  100fe2:	55                   	push   ebp
  100fe3:	68 c4 9b 11 00       	push   0x119bc4
  100fe8:	e8 43 e5 00 00       	call   10f530 <__ubsan_handle_type_mismatch>
  100fed:	83 c4 10             	add    esp,0x10
  100ff0:	8b 44 24 0c          	mov    eax,DWORD PTR [esp+0xc]
  100ff4:	e9 30 ff ff ff       	jmp    100f29 <irq_handler+0x59>
  100ff9:	89 44 24 0c          	mov    DWORD PTR [esp+0xc],eax
  100ffd:	52                   	push   edx
  100ffe:	52                   	push   edx
  100fff:	6a 00                	push   0x0
  101001:	68 dc 9b 11 00       	push   0x119bdc
  101006:	e8 25 e5 00 00       	call   10f530 <__ubsan_handle_type_mismatch>
  10100b:	83 c4 10             	add    esp,0x10
  10100e:	8b 44 24 0c          	mov    eax,DWORD PTR [esp+0xc]
  101012:	e9 06 ff ff ff       	jmp    100f1d <irq_handler+0x4d>
  101017:	90                   	nop
  101018:	90                   	nop
  101019:	8d b4 26 00 00 00 00 	lea    esi,[esi+eiz*1+0x0]

00101020 <_ZN4naos3HAL3IDT14InitExceptionsEv>:
  101020:	55                   	push   ebp
  101021:	57                   	push   edi
  101022:	b8 fa 84 10 00       	mov    eax,0x1084fa
  101027:	56                   	push   esi
  101028:	53                   	push   ebx
  101029:	83 ec 1c             	sub    esp,0x1c
  10102c:	0f b6 15 eb 9c 11 00 	movzx  edx,BYTE PTR ds:0x119ceb
  101033:	66 a3 00 d7 13 00    	mov    ds:0x13d700,ax
  101039:	c1 e8 10             	shr    eax,0x10
  10103c:	89 d3                	mov    ebx,edx
  10103e:	83 e3 0f             	and    ebx,0xf
  101041:	88 5c 24 0a          	mov    BYTE PTR [esp+0xa],bl
  101045:	89 d3                	mov    ebx,edx
  101047:	c0 ea 07             	shr    dl,0x7
  10104a:	c0 eb 05             	shr    bl,0x5
  10104d:	88 54 24 0b          	mov    BYTE PTR [esp+0xb],dl
  101051:	89 df                	mov    edi,ebx
  101053:	bb 02 00 00 00       	mov    ebx,0x2
  101058:	81 eb 00 d7 13 00    	sub    ebx,0x13d700
  10105e:	83 e7 03             	and    edi,0x3
  101061:	8d 93 06 d7 13 00    	lea    edx,[ebx+0x13d706]
  101067:	81 fa 00 08 00 00    	cmp    edx,0x800
  10106d:	0f 87 6c 1e 00 00    	ja     102edf <_ZN4naos3HAL3IDT14InitExceptionsEv+0x1ebf>
  101073:	be 01 00 00 00       	mov    esi,0x1
  101078:	66 a3 06 d7 13 00    	mov    ds:0x13d706,ax
  10107e:	81 ee 00 d7 13 00    	sub    esi,0x13d700
  101084:	8d 86 04 d7 13 00    	lea    eax,[esi+0x13d704]
  10108a:	3d 00 08 00 00       	cmp    eax,0x800
  10108f:	0f 87 6d 45 00 00    	ja     105602 <_ZN4naos3HAL3IDT14InitExceptionsEv+0x45e2>
  101095:	8d ae 05 d7 13 00    	lea    ebp,[esi+0x13d705]
  10109b:	c6 05 04 d7 13 00 00 	mov    BYTE PTR ds:0x13d704,0x0
  1010a2:	ba 05 d7 13 00       	mov    edx,0x13d705
  1010a7:	81 fd 00 08 00 00    	cmp    ebp,0x800
  1010ad:	0f 87 28 45 00 00    	ja     1055db <_ZN4naos3HAL3IDT14InitExceptionsEv+0x45bb>
  1010b3:	0f b6 05 05 d7 13 00 	movzx  eax,BYTE PTR ds:0x13d705
  1010ba:	83 e0 f0             	and    eax,0xfffffff0
  1010bd:	0a 44 24 0a          	or     al,BYTE PTR [esp+0xa]
  1010c1:	81 fd 00 08 00 00    	cmp    ebp,0x800
  1010c7:	a2 05 d7 13 00       	mov    ds:0x13d705,al
  1010cc:	0f 87 da 44 00 00    	ja     1055ac <_ZN4naos3HAL3IDT14InitExceptionsEv+0x458c>
  1010d2:	0f b6 05 05 d7 13 00 	movzx  eax,BYTE PTR ds:0x13d705
  1010d9:	89 f9                	mov    ecx,edi
  1010db:	83 e1 03             	and    ecx,0x3
  1010de:	c1 e1 05             	shl    ecx,0x5
  1010e1:	83 e0 9f             	and    eax,0xffffff9f
  1010e4:	09 c8                	or     eax,ecx
  1010e6:	81 fd 00 08 00 00    	cmp    ebp,0x800
  1010ec:	a2 05 d7 13 00       	mov    ds:0x13d705,al
  1010f1:	0f 87 86 44 00 00    	ja     10557d <_ZN4naos3HAL3IDT14InitExceptionsEv+0x455d>
  1010f7:	0f b6 05 05 d7 13 00 	movzx  eax,BYTE PTR ds:0x13d705
  1010fe:	0f b6 4c 24 0b       	movzx  ecx,BYTE PTR [esp+0xb]
  101103:	83 e0 7f             	and    eax,0x7f
  101106:	c1 e1 07             	shl    ecx,0x7
  101109:	09 c8                	or     eax,ecx
  10110b:	81 fd 00 08 00 00    	cmp    ebp,0x800
  101111:	a2 05 d7 13 00       	mov    ds:0x13d705,al
  101116:	0f 87 3a 44 00 00    	ja     105556 <_ZN4naos3HAL3IDT14InitExceptionsEv+0x4536>
  10111c:	8d 83 02 d7 13 00    	lea    eax,[ebx+0x13d702]
  101122:	80 25 05 d7 13 00 ef 	and    BYTE PTR ds:0x13d705,0xef
  101129:	3d 00 08 00 00       	cmp    eax,0x800
  10112e:	0f 87 fe 43 00 00    	ja     105532 <_ZN4naos3HAL3IDT14InitExceptionsEv+0x4512>
  101134:	8d 83 08 d7 13 00    	lea    eax,[ebx+0x13d708]
  10113a:	ba 08 00 00 00       	mov    edx,0x8
  10113f:	bd 01 85 10 00       	mov    ebp,0x108501
  101144:	66 89 15 02 d7 13 00 	mov    WORD PTR ds:0x13d702,dx
  10114b:	3d 00 08 00 00       	cmp    eax,0x800
  101150:	0f 87 b8 43 00 00    	ja     10550e <_ZN4naos3HAL3IDT14InitExceptionsEv+0x44ee>
  101156:	8d 83 0e d7 13 00    	lea    eax,[ebx+0x13d70e]
  10115c:	66 89 2d 08 d7 13 00 	mov    WORD PTR ds:0x13d708,bp
  101163:	c1 ed 10             	shr    ebp,0x10
  101166:	3d 00 08 00 00       	cmp    eax,0x800
  10116b:	0f 87 79 43 00 00    	ja     1054ea <_ZN4naos3HAL3IDT14InitExceptionsEv+0x44ca>
  101171:	8d 86 0c d7 13 00    	lea    eax,[esi+0x13d70c]
  101177:	66 89 2d 0e d7 13 00 	mov    WORD PTR ds:0x13d70e,bp
  10117e:	3d 00 08 00 00       	cmp    eax,0x800
  101183:	0f 87 3d 43 00 00    	ja     1054c6 <_ZN4naos3HAL3IDT14InitExceptionsEv+0x44a6>
  101189:	8d ae 0d d7 13 00    	lea    ebp,[esi+0x13d70d]
  10118f:	c6 05 0c d7 13 00 00 	mov    BYTE PTR ds:0x13d70c,0x0
  101196:	ba 0d d7 13 00       	mov    edx,0x13d70d
  10119b:	81 fd 00 08 00 00    	cmp    ebp,0x800
  1011a1:	0f 87 f8 42 00 00    	ja     10549f <_ZN4naos3HAL3IDT14InitExceptionsEv+0x447f>
  1011a7:	0f b6 05 0d d7 13 00 	movzx  eax,BYTE PTR ds:0x13d70d
  1011ae:	83 e0 f0             	and    eax,0xfffffff0
  1011b1:	0a 44 24 0a          	or     al,BYTE PTR [esp+0xa]
  1011b5:	81 fd 00 08 00 00    	cmp    ebp,0x800
  1011bb:	a2 0d d7 13 00       	mov    ds:0x13d70d,al
  1011c0:	0f 87 aa 42 00 00    	ja     105470 <_ZN4naos3HAL3IDT14InitExceptionsEv+0x4450>
  1011c6:	0f b6 05 0d d7 13 00 	movzx  eax,BYTE PTR ds:0x13d70d
  1011cd:	89 f9                	mov    ecx,edi
  1011cf:	83 e1 03             	and    ecx,0x3
  1011d2:	c1 e1 05             	shl    ecx,0x5
  1011d5:	83 e0 9f             	and    eax,0xffffff9f
  1011d8:	09 c8                	or     eax,ecx
  1011da:	81 fd 00 08 00 00    	cmp    ebp,0x800
  1011e0:	a2 0d d7 13 00       	mov    ds:0x13d70d,al
  1011e5:	0f 87 56 42 00 00    	ja     105441 <_ZN4naos3HAL3IDT14InitExceptionsEv+0x4421>
  1011eb:	0f b6 05 0d d7 13 00 	movzx  eax,BYTE PTR ds:0x13d70d
  1011f2:	0f b6 4c 24 0b       	movzx  ecx,BYTE PTR [esp+0xb]
  1011f7:	83 e0 7f             	and    eax,0x7f
  1011fa:	c1 e1 07             	shl    ecx,0x7
  1011fd:	09 c8                	or     eax,ecx
  1011ff:	81 fd 00 08 00 00    	cmp    ebp,0x800
  101205:	a2 0d d7 13 00       	mov    ds:0x13d70d,al
  10120a:	0f 87 0a 42 00 00    	ja     10541a <_ZN4naos3HAL3IDT14InitExceptionsEv+0x43fa>
  101210:	8d 83 0a d7 13 00    	lea    eax,[ebx+0x13d70a]
  101216:	80 25 0d d7 13 00 ef 	and    BYTE PTR ds:0x13d70d,0xef
  10121d:	3d 00 08 00 00       	cmp    eax,0x800
  101222:	0f 87 ce 41 00 00    	ja     1053f6 <_ZN4naos3HAL3IDT14InitExceptionsEv+0x43d6>
  101228:	8d 83 10 d7 13 00    	lea    eax,[ebx+0x13d710]
  10122e:	ba 08 00 00 00       	mov    edx,0x8
  101233:	bd 08 85 10 00       	mov    ebp,0x108508
  101238:	66 89 15 0a d7 13 00 	mov    WORD PTR ds:0x13d70a,dx
  10123f:	3d 00 08 00 00       	cmp    eax,0x800
  101244:	0f 87 88 41 00 00    	ja     1053d2 <_ZN4naos3HAL3IDT14InitExceptionsEv+0x43b2>
  10124a:	8d 83 16 d7 13 00    	lea    eax,[ebx+0x13d716]
  101250:	66 89 2d 10 d7 13 00 	mov    WORD PTR ds:0x13d710,bp
  101257:	c1 ed 10             	shr    ebp,0x10
  10125a:	3d 00 08 00 00       	cmp    eax,0x800
  10125f:	0f 87 49 41 00 00    	ja     1053ae <_ZN4naos3HAL3IDT14InitExceptionsEv+0x438e>
  101265:	8d 86 14 d7 13 00    	lea    eax,[esi+0x13d714]
  10126b:	66 89 2d 16 d7 13 00 	mov    WORD PTR ds:0x13d716,bp
  101272:	3d 00 08 00 00       	cmp    eax,0x800
  101277:	0f 87 0d 41 00 00    	ja     10538a <_ZN4naos3HAL3IDT14InitExceptionsEv+0x436a>
  10127d:	8d ae 15 d7 13 00    	lea    ebp,[esi+0x13d715]
  101283:	c6 05 14 d7 13 00 00 	mov    BYTE PTR ds:0x13d714,0x0
  10128a:	ba 15 d7 13 00       	mov    edx,0x13d715
  10128f:	81 fd 00 08 00 00    	cmp    ebp,0x800
  101295:	0f 87 c8 40 00 00    	ja     105363 <_ZN4naos3HAL3IDT14InitExceptionsEv+0x4343>
  10129b:	0f b6 05 15 d7 13 00 	movzx  eax,BYTE PTR ds:0x13d715
  1012a2:	83 e0 f0             	and    eax,0xfffffff0
  1012a5:	0a 44 24 0a          	or     al,BYTE PTR [esp+0xa]
  1012a9:	81 fd 00 08 00 00    	cmp    ebp,0x800
  1012af:	a2 15 d7 13 00       	mov    ds:0x13d715,al
  1012b4:	0f 87 7a 40 00 00    	ja     105334 <_ZN4naos3HAL3IDT14InitExceptionsEv+0x4314>
  1012ba:	0f b6 05 15 d7 13 00 	movzx  eax,BYTE PTR ds:0x13d715
  1012c1:	89 f9                	mov    ecx,edi
  1012c3:	83 e1 03             	and    ecx,0x3
  1012c6:	c1 e1 05             	shl    ecx,0x5
  1012c9:	83 e0 9f             	and    eax,0xffffff9f
  1012cc:	09 c8                	or     eax,ecx
  1012ce:	81 fd 00 08 00 00    	cmp    ebp,0x800
  1012d4:	a2 15 d7 13 00       	mov    ds:0x13d715,al
  1012d9:	0f 87 26 40 00 00    	ja     105305 <_ZN4naos3HAL3IDT14InitExceptionsEv+0x42e5>
  1012df:	0f b6 05 15 d7 13 00 	movzx  eax,BYTE PTR ds:0x13d715
  1012e6:	0f b6 4c 24 0b       	movzx  ecx,BYTE PTR [esp+0xb]
  1012eb:	83 e0 7f             	and    eax,0x7f
  1012ee:	c1 e1 07             	shl    ecx,0x7
  1012f1:	09 c8                	or     eax,ecx
  1012f3:	81 fd 00 08 00 00    	cmp    ebp,0x800
  1012f9:	a2 15 d7 13 00       	mov    ds:0x13d715,al
  1012fe:	0f 87 da 3f 00 00    	ja     1052de <_ZN4naos3HAL3IDT14InitExceptionsEv+0x42be>
  101304:	8d 83 12 d7 13 00    	lea    eax,[ebx+0x13d712]
  10130a:	80 25 15 d7 13 00 ef 	and    BYTE PTR ds:0x13d715,0xef
  101311:	3d 00 08 00 00       	cmp    eax,0x800
  101316:	0f 87 9e 3f 00 00    	ja     1052ba <_ZN4naos3HAL3IDT14InitExceptionsEv+0x429a>
  10131c:	8d 83 18 d7 13 00    	lea    eax,[ebx+0x13d718]
  101322:	ba 08 00 00 00       	mov    edx,0x8
  101327:	bd 0f 85 10 00       	mov    ebp,0x10850f
  10132c:	66 89 15 12 d7 13 00 	mov    WORD PTR ds:0x13d712,dx
  101333:	3d 00 08 00 00       	cmp    eax,0x800
  101338:	0f 87 58 3f 00 00    	ja     105296 <_ZN4naos3HAL3IDT14InitExceptionsEv+0x4276>
  10133e:	8d 83 1e d7 13 00    	lea    eax,[ebx+0x13d71e]
  101344:	66 89 2d 18 d7 13 00 	mov    WORD PTR ds:0x13d718,bp
  10134b:	c1 ed 10             	shr    ebp,0x10
  10134e:	3d 00 08 00 00       	cmp    eax,0x800
  101353:	0f 87 19 3f 00 00    	ja     105272 <_ZN4naos3HAL3IDT14InitExceptionsEv+0x4252>
  101359:	8d 86 1c d7 13 00    	lea    eax,[esi+0x13d71c]
  10135f:	66 89 2d 1e d7 13 00 	mov    WORD PTR ds:0x13d71e,bp
  101366:	3d 00 08 00 00       	cmp    eax,0x800
  10136b:	0f 87 dd 3e 00 00    	ja     10524e <_ZN4naos3HAL3IDT14InitExceptionsEv+0x422e>
  101371:	8d ae 1d d7 13 00    	lea    ebp,[esi+0x13d71d]
  101377:	c6 05 1c d7 13 00 00 	mov    BYTE PTR ds:0x13d71c,0x0
  10137e:	ba 1d d7 13 00       	mov    edx,0x13d71d
  101383:	81 fd 00 08 00 00    	cmp    ebp,0x800
  101389:	0f 87 98 3e 00 00    	ja     105227 <_ZN4naos3HAL3IDT14InitExceptionsEv+0x4207>
  10138f:	0f b6 05 1d d7 13 00 	movzx  eax,BYTE PTR ds:0x13d71d
  101396:	83 e0 f0             	and    eax,0xfffffff0
  101399:	0a 44 24 0a          	or     al,BYTE PTR [esp+0xa]
  10139d:	81 fd 00 08 00 00    	cmp    ebp,0x800
  1013a3:	a2 1d d7 13 00       	mov    ds:0x13d71d,al
  1013a8:	0f 87 4a 3e 00 00    	ja     1051f8 <_ZN4naos3HAL3IDT14InitExceptionsEv+0x41d8>
  1013ae:	0f b6 05 1d d7 13 00 	movzx  eax,BYTE PTR ds:0x13d71d
  1013b5:	89 f9                	mov    ecx,edi
  1013b7:	83 e1 03             	and    ecx,0x3
  1013ba:	c1 e1 05             	shl    ecx,0x5
  1013bd:	83 e0 9f             	and    eax,0xffffff9f
  1013c0:	09 c8                	or     eax,ecx
  1013c2:	81 fd 00 08 00 00    	cmp    ebp,0x800
  1013c8:	a2 1d d7 13 00       	mov    ds:0x13d71d,al
  1013cd:	0f 87 f6 3d 00 00    	ja     1051c9 <_ZN4naos3HAL3IDT14InitExceptionsEv+0x41a9>
  1013d3:	0f b6 05 1d d7 13 00 	movzx  eax,BYTE PTR ds:0x13d71d
  1013da:	0f b6 4c 24 0b       	movzx  ecx,BYTE PTR [esp+0xb]
  1013df:	83 e0 7f             	and    eax,0x7f
  1013e2:	c1 e1 07             	shl    ecx,0x7
  1013e5:	09 c8                	or     eax,ecx
  1013e7:	81 fd 00 08 00 00    	cmp    ebp,0x800
  1013ed:	a2 1d d7 13 00       	mov    ds:0x13d71d,al
  1013f2:	0f 87 aa 3d 00 00    	ja     1051a2 <_ZN4naos3HAL3IDT14InitExceptionsEv+0x4182>
  1013f8:	8d 83 1a d7 13 00    	lea    eax,[ebx+0x13d71a]
  1013fe:	80 25 1d d7 13 00 ef 	and    BYTE PTR ds:0x13d71d,0xef
  101405:	3d 00 08 00 00       	cmp    eax,0x800
  10140a:	0f 87 6e 3d 00 00    	ja     10517e <_ZN4naos3HAL3IDT14InitExceptionsEv+0x415e>
  101410:	8d 83 20 d7 13 00    	lea    eax,[ebx+0x13d720]
  101416:	ba 08 00 00 00       	mov    edx,0x8
  10141b:	bd 19 85 10 00       	mov    ebp,0x108519
  101420:	66 89 15 1a d7 13 00 	mov    WORD PTR ds:0x13d71a,dx
  101427:	3d 00 08 00 00       	cmp    eax,0x800
  10142c:	0f 87 28 3d 00 00    	ja     10515a <_ZN4naos3HAL3IDT14InitExceptionsEv+0x413a>
  101432:	8d 83 26 d7 13 00    	lea    eax,[ebx+0x13d726]
  101438:	66 89 2d 20 d7 13 00 	mov    WORD PTR ds:0x13d720,bp
  10143f:	c1 ed 10             	shr    ebp,0x10
  101442:	3d 00 08 00 00       	cmp    eax,0x800
  101447:	0f 87 e9 3c 00 00    	ja     105136 <_ZN4naos3HAL3IDT14InitExceptionsEv+0x4116>
  10144d:	8d 86 24 d7 13 00    	lea    eax,[esi+0x13d724]
  101453:	66 89 2d 26 d7 13 00 	mov    WORD PTR ds:0x13d726,bp
  10145a:	3d 00 08 00 00       	cmp    eax,0x800
  10145f:	0f 87 ad 3c 00 00    	ja     105112 <_ZN4naos3HAL3IDT14InitExceptionsEv+0x40f2>
  101465:	8d ae 25 d7 13 00    	lea    ebp,[esi+0x13d725]
  10146b:	c6 05 24 d7 13 00 00 	mov    BYTE PTR ds:0x13d724,0x0
  101472:	ba 25 d7 13 00       	mov    edx,0x13d725
  101477:	81 fd 00 08 00 00    	cmp    ebp,0x800
  10147d:	0f 87 68 3c 00 00    	ja     1050eb <_ZN4naos3HAL3IDT14InitExceptionsEv+0x40cb>
  101483:	0f b6 05 25 d7 13 00 	movzx  eax,BYTE PTR ds:0x13d725
  10148a:	83 e0 f0             	and    eax,0xfffffff0
  10148d:	0a 44 24 0a          	or     al,BYTE PTR [esp+0xa]
  101491:	81 fd 00 08 00 00    	cmp    ebp,0x800
  101497:	a2 25 d7 13 00       	mov    ds:0x13d725,al
  10149c:	0f 87 1a 3c 00 00    	ja     1050bc <_ZN4naos3HAL3IDT14InitExceptionsEv+0x409c>
  1014a2:	0f b6 05 25 d7 13 00 	movzx  eax,BYTE PTR ds:0x13d725
  1014a9:	89 f9                	mov    ecx,edi
  1014ab:	83 e1 03             	and    ecx,0x3
  1014ae:	c1 e1 05             	shl    ecx,0x5
  1014b1:	83 e0 9f             	and    eax,0xffffff9f
  1014b4:	09 c8                	or     eax,ecx
  1014b6:	81 fd 00 08 00 00    	cmp    ebp,0x800
  1014bc:	a2 25 d7 13 00       	mov    ds:0x13d725,al
  1014c1:	0f 87 c6 3b 00 00    	ja     10508d <_ZN4naos3HAL3IDT14InitExceptionsEv+0x406d>
  1014c7:	0f b6 05 25 d7 13 00 	movzx  eax,BYTE PTR ds:0x13d725
  1014ce:	0f b6 4c 24 0b       	movzx  ecx,BYTE PTR [esp+0xb]
  1014d3:	83 e0 7f             	and    eax,0x7f
  1014d6:	c1 e1 07             	shl    ecx,0x7
  1014d9:	09 c8                	or     eax,ecx
  1014db:	81 fd 00 08 00 00    	cmp    ebp,0x800
  1014e1:	a2 25 d7 13 00       	mov    ds:0x13d725,al
  1014e6:	0f 87 7a 3b 00 00    	ja     105066 <_ZN4naos3HAL3IDT14InitExceptionsEv+0x4046>
  1014ec:	8d 83 22 d7 13 00    	lea    eax,[ebx+0x13d722]
  1014f2:	80 25 25 d7 13 00 ef 	and    BYTE PTR ds:0x13d725,0xef
  1014f9:	3d 00 08 00 00       	cmp    eax,0x800
  1014fe:	0f 87 3e 3b 00 00    	ja     105042 <_ZN4naos3HAL3IDT14InitExceptionsEv+0x4022>
  101504:	8d 83 28 d7 13 00    	lea    eax,[ebx+0x13d728]
  10150a:	ba 08 00 00 00       	mov    edx,0x8
  10150f:	bd 23 85 10 00       	mov    ebp,0x108523
  101514:	66 89 15 22 d7 13 00 	mov    WORD PTR ds:0x13d722,dx
  10151b:	3d 00 08 00 00       	cmp    eax,0x800
  101520:	0f 87 f8 3a 00 00    	ja     10501e <_ZN4naos3HAL3IDT14InitExceptionsEv+0x3ffe>
  101526:	8d 83 2e d7 13 00    	lea    eax,[ebx+0x13d72e]
  10152c:	66 89 2d 28 d7 13 00 	mov    WORD PTR ds:0x13d728,bp
  101533:	c1 ed 10             	shr    ebp,0x10
  101536:	3d 00 08 00 00       	cmp    eax,0x800
  10153b:	0f 87 b9 3a 00 00    	ja     104ffa <_ZN4naos3HAL3IDT14InitExceptionsEv+0x3fda>
  101541:	8d 86 2c d7 13 00    	lea    eax,[esi+0x13d72c]
  101547:	66 89 2d 2e d7 13 00 	mov    WORD PTR ds:0x13d72e,bp
  10154e:	3d 00 08 00 00       	cmp    eax,0x800
  101553:	0f 87 7d 3a 00 00    	ja     104fd6 <_ZN4naos3HAL3IDT14InitExceptionsEv+0x3fb6>
  101559:	8d ae 2d d7 13 00    	lea    ebp,[esi+0x13d72d]
  10155f:	c6 05 2c d7 13 00 00 	mov    BYTE PTR ds:0x13d72c,0x0
  101566:	ba 2d d7 13 00       	mov    edx,0x13d72d
  10156b:	81 fd 00 08 00 00    	cmp    ebp,0x800
  101571:	0f 87 38 3a 00 00    	ja     104faf <_ZN4naos3HAL3IDT14InitExceptionsEv+0x3f8f>
  101577:	0f b6 05 2d d7 13 00 	movzx  eax,BYTE PTR ds:0x13d72d
  10157e:	83 e0 f0             	and    eax,0xfffffff0
  101581:	0a 44 24 0a          	or     al,BYTE PTR [esp+0xa]
  101585:	81 fd 00 08 00 00    	cmp    ebp,0x800
  10158b:	a2 2d d7 13 00       	mov    ds:0x13d72d,al
  101590:	0f 87 ea 39 00 00    	ja     104f80 <_ZN4naos3HAL3IDT14InitExceptionsEv+0x3f60>
  101596:	0f b6 05 2d d7 13 00 	movzx  eax,BYTE PTR ds:0x13d72d
  10159d:	89 f9                	mov    ecx,edi
  10159f:	83 e1 03             	and    ecx,0x3
  1015a2:	c1 e1 05             	shl    ecx,0x5
  1015a5:	83 e0 9f             	and    eax,0xffffff9f
  1015a8:	09 c8                	or     eax,ecx
  1015aa:	81 fd 00 08 00 00    	cmp    ebp,0x800
  1015b0:	a2 2d d7 13 00       	mov    ds:0x13d72d,al
  1015b5:	0f 87 96 39 00 00    	ja     104f51 <_ZN4naos3HAL3IDT14InitExceptionsEv+0x3f31>
  1015bb:	0f b6 05 2d d7 13 00 	movzx  eax,BYTE PTR ds:0x13d72d
  1015c2:	0f b6 4c 24 0b       	movzx  ecx,BYTE PTR [esp+0xb]
  1015c7:	83 e0 7f             	and    eax,0x7f
  1015ca:	c1 e1 07             	shl    ecx,0x7
  1015cd:	09 c8                	or     eax,ecx
  1015cf:	81 fd 00 08 00 00    	cmp    ebp,0x800
  1015d5:	a2 2d d7 13 00       	mov    ds:0x13d72d,al
  1015da:	0f 87 4a 39 00 00    	ja     104f2a <_ZN4naos3HAL3IDT14InitExceptionsEv+0x3f0a>
  1015e0:	8d 83 2a d7 13 00    	lea    eax,[ebx+0x13d72a]
  1015e6:	80 25 2d d7 13 00 ef 	and    BYTE PTR ds:0x13d72d,0xef
  1015ed:	3d 00 08 00 00       	cmp    eax,0x800
  1015f2:	0f 87 0e 39 00 00    	ja     104f06 <_ZN4naos3HAL3IDT14InitExceptionsEv+0x3ee6>
  1015f8:	8d 83 30 d7 13 00    	lea    eax,[ebx+0x13d730]
  1015fe:	ba 08 00 00 00       	mov    edx,0x8
  101603:	bd 2d 85 10 00       	mov    ebp,0x10852d
  101608:	66 89 15 2a d7 13 00 	mov    WORD PTR ds:0x13d72a,dx
  10160f:	3d 00 08 00 00       	cmp    eax,0x800
  101614:	0f 87 c8 38 00 00    	ja     104ee2 <_ZN4naos3HAL3IDT14InitExceptionsEv+0x3ec2>
  10161a:	8d 83 36 d7 13 00    	lea    eax,[ebx+0x13d736]
  101620:	66 89 2d 30 d7 13 00 	mov    WORD PTR ds:0x13d730,bp
  101627:	c1 ed 10             	shr    ebp,0x10
  10162a:	3d 00 08 00 00       	cmp    eax,0x800
  10162f:	0f 87 89 38 00 00    	ja     104ebe <_ZN4naos3HAL3IDT14InitExceptionsEv+0x3e9e>
  101635:	8d 86 34 d7 13 00    	lea    eax,[esi+0x13d734]
  10163b:	66 89 2d 36 d7 13 00 	mov    WORD PTR ds:0x13d736,bp
  101642:	3d 00 08 00 00       	cmp    eax,0x800
  101647:	0f 87 4d 38 00 00    	ja     104e9a <_ZN4naos3HAL3IDT14InitExceptionsEv+0x3e7a>
  10164d:	8d ae 35 d7 13 00    	lea    ebp,[esi+0x13d735]
  101653:	c6 05 34 d7 13 00 00 	mov    BYTE PTR ds:0x13d734,0x0
  10165a:	ba 35 d7 13 00       	mov    edx,0x13d735
  10165f:	81 fd 00 08 00 00    	cmp    ebp,0x800
  101665:	0f 87 08 38 00 00    	ja     104e73 <_ZN4naos3HAL3IDT14InitExceptionsEv+0x3e53>
  10166b:	0f b6 05 35 d7 13 00 	movzx  eax,BYTE PTR ds:0x13d735
  101672:	83 e0 f0             	and    eax,0xfffffff0
  101675:	0a 44 24 0a          	or     al,BYTE PTR [esp+0xa]
  101679:	81 fd 00 08 00 00    	cmp    ebp,0x800
  10167f:	a2 35 d7 13 00       	mov    ds:0x13d735,al
  101684:	0f 87 ba 37 00 00    	ja     104e44 <_ZN4naos3HAL3IDT14InitExceptionsEv+0x3e24>
  10168a:	0f b6 05 35 d7 13 00 	movzx  eax,BYTE PTR ds:0x13d735
  101691:	89 f9                	mov    ecx,edi
  101693:	83 e1 03             	and    ecx,0x3
  101696:	c1 e1 05             	shl    ecx,0x5
  101699:	83 e0 9f             	and    eax,0xffffff9f
  10169c:	09 c8                	or     eax,ecx
  10169e:	81 fd 00 08 00 00    	cmp    ebp,0x800
  1016a4:	a2 35 d7 13 00       	mov    ds:0x13d735,al
  1016a9:	0f 87 66 37 00 00    	ja     104e15 <_ZN4naos3HAL3IDT14InitExceptionsEv+0x3df5>
  1016af:	0f b6 05 35 d7 13 00 	movzx  eax,BYTE PTR ds:0x13d735
  1016b6:	0f b6 4c 24 0b       	movzx  ecx,BYTE PTR [esp+0xb]
  1016bb:	83 e0 7f             	and    eax,0x7f
  1016be:	c1 e1 07             	shl    ecx,0x7
  1016c1:	09 c8                	or     eax,ecx
  1016c3:	81 fd 00 08 00 00    	cmp    ebp,0x800
  1016c9:	a2 35 d7 13 00       	mov    ds:0x13d735,al
  1016ce:	0f 87 1a 37 00 00    	ja     104dee <_ZN4naos3HAL3IDT14InitExceptionsEv+0x3dce>
  1016d4:	8d 83 32 d7 13 00    	lea    eax,[ebx+0x13d732]
  1016da:	80 25 35 d7 13 00 ef 	and    BYTE PTR ds:0x13d735,0xef
  1016e1:	3d 00 08 00 00       	cmp    eax,0x800
  1016e6:	0f 87 de 36 00 00    	ja     104dca <_ZN4naos3HAL3IDT14InitExceptionsEv+0x3daa>
  1016ec:	8d 83 38 d7 13 00    	lea    eax,[ebx+0x13d738]
  1016f2:	ba 08 00 00 00       	mov    edx,0x8
  1016f7:	bd 37 85 10 00       	mov    ebp,0x108537
  1016fc:	66 89 15 32 d7 13 00 	mov    WORD PTR ds:0x13d732,dx
  101703:	3d 00 08 00 00       	cmp    eax,0x800
  101708:	0f 87 98 36 00 00    	ja     104da6 <_ZN4naos3HAL3IDT14InitExceptionsEv+0x3d86>
  10170e:	8d 83 3e d7 13 00    	lea    eax,[ebx+0x13d73e]
  101714:	66 89 2d 38 d7 13 00 	mov    WORD PTR ds:0x13d738,bp
  10171b:	c1 ed 10             	shr    ebp,0x10
  10171e:	3d 00 08 00 00       	cmp    eax,0x800
  101723:	0f 87 59 36 00 00    	ja     104d82 <_ZN4naos3HAL3IDT14InitExceptionsEv+0x3d62>
  101729:	8d 86 3c d7 13 00    	lea    eax,[esi+0x13d73c]
  10172f:	66 89 2d 3e d7 13 00 	mov    WORD PTR ds:0x13d73e,bp
  101736:	3d 00 08 00 00       	cmp    eax,0x800
  10173b:	0f 87 1d 36 00 00    	ja     104d5e <_ZN4naos3HAL3IDT14InitExceptionsEv+0x3d3e>
  101741:	8d ae 3d d7 13 00    	lea    ebp,[esi+0x13d73d]
  101747:	c6 05 3c d7 13 00 00 	mov    BYTE PTR ds:0x13d73c,0x0
  10174e:	ba 3d d7 13 00       	mov    edx,0x13d73d
  101753:	81 fd 00 08 00 00    	cmp    ebp,0x800
  101759:	0f 87 d8 35 00 00    	ja     104d37 <_ZN4naos3HAL3IDT14InitExceptionsEv+0x3d17>
  10175f:	0f b6 05 3d d7 13 00 	movzx  eax,BYTE PTR ds:0x13d73d
  101766:	83 e0 f0             	and    eax,0xfffffff0
  101769:	0a 44 24 0a          	or     al,BYTE PTR [esp+0xa]
  10176d:	81 fd 00 08 00 00    	cmp    ebp,0x800
  101773:	a2 3d d7 13 00       	mov    ds:0x13d73d,al
  101778:	0f 87 8a 35 00 00    	ja     104d08 <_ZN4naos3HAL3IDT14InitExceptionsEv+0x3ce8>
  10177e:	0f b6 05 3d d7 13 00 	movzx  eax,BYTE PTR ds:0x13d73d
  101785:	89 f9                	mov    ecx,edi
  101787:	83 e1 03             	and    ecx,0x3
  10178a:	c1 e1 05             	shl    ecx,0x5
  10178d:	83 e0 9f             	and    eax,0xffffff9f
  101790:	09 c8                	or     eax,ecx
  101792:	81 fd 00 08 00 00    	cmp    ebp,0x800
  101798:	a2 3d d7 13 00       	mov    ds:0x13d73d,al
  10179d:	0f 87 36 35 00 00    	ja     104cd9 <_ZN4naos3HAL3IDT14InitExceptionsEv+0x3cb9>
  1017a3:	0f b6 05 3d d7 13 00 	movzx  eax,BYTE PTR ds:0x13d73d
  1017aa:	0f b6 4c 24 0b       	movzx  ecx,BYTE PTR [esp+0xb]
  1017af:	83 e0 7f             	and    eax,0x7f
  1017b2:	c1 e1 07             	shl    ecx,0x7
  1017b5:	09 c8                	or     eax,ecx
  1017b7:	81 fd 00 08 00 00    	cmp    ebp,0x800
  1017bd:	a2 3d d7 13 00       	mov    ds:0x13d73d,al
  1017c2:	0f 87 ea 34 00 00    	ja     104cb2 <_ZN4naos3HAL3IDT14InitExceptionsEv+0x3c92>
  1017c8:	8d 83 3a d7 13 00    	lea    eax,[ebx+0x13d73a]
  1017ce:	80 25 3d d7 13 00 ef 	and    BYTE PTR ds:0x13d73d,0xef
  1017d5:	3d 00 08 00 00       	cmp    eax,0x800
  1017da:	0f 87 ae 34 00 00    	ja     104c8e <_ZN4naos3HAL3IDT14InitExceptionsEv+0x3c6e>
  1017e0:	8d 83 40 d7 13 00    	lea    eax,[ebx+0x13d740]
  1017e6:	ba 08 00 00 00       	mov    edx,0x8
  1017eb:	bd 41 85 10 00       	mov    ebp,0x108541
  1017f0:	66 89 15 3a d7 13 00 	mov    WORD PTR ds:0x13d73a,dx
  1017f7:	3d 00 08 00 00       	cmp    eax,0x800
  1017fc:	0f 87 68 34 00 00    	ja     104c6a <_ZN4naos3HAL3IDT14InitExceptionsEv+0x3c4a>
  101802:	8d 83 46 d7 13 00    	lea    eax,[ebx+0x13d746]
  101808:	66 89 2d 40 d7 13 00 	mov    WORD PTR ds:0x13d740,bp
  10180f:	c1 ed 10             	shr    ebp,0x10
  101812:	3d 00 08 00 00       	cmp    eax,0x800
  101817:	0f 87 29 34 00 00    	ja     104c46 <_ZN4naos3HAL3IDT14InitExceptionsEv+0x3c26>
  10181d:	8d 86 44 d7 13 00    	lea    eax,[esi+0x13d744]
  101823:	66 89 2d 46 d7 13 00 	mov    WORD PTR ds:0x13d746,bp
  10182a:	3d 00 08 00 00       	cmp    eax,0x800
  10182f:	0f 87 ed 33 00 00    	ja     104c22 <_ZN4naos3HAL3IDT14InitExceptionsEv+0x3c02>
  101835:	8d ae 45 d7 13 00    	lea    ebp,[esi+0x13d745]
  10183b:	c6 05 44 d7 13 00 00 	mov    BYTE PTR ds:0x13d744,0x0
  101842:	ba 45 d7 13 00       	mov    edx,0x13d745
  101847:	81 fd 00 08 00 00    	cmp    ebp,0x800
  10184d:	0f 87 a8 33 00 00    	ja     104bfb <_ZN4naos3HAL3IDT14InitExceptionsEv+0x3bdb>
  101853:	0f b6 05 45 d7 13 00 	movzx  eax,BYTE PTR ds:0x13d745
  10185a:	83 e0 f0             	and    eax,0xfffffff0
  10185d:	0a 44 24 0a          	or     al,BYTE PTR [esp+0xa]
  101861:	81 fd 00 08 00 00    	cmp    ebp,0x800
  101867:	a2 45 d7 13 00       	mov    ds:0x13d745,al
  10186c:	0f 87 5a 33 00 00    	ja     104bcc <_ZN4naos3HAL3IDT14InitExceptionsEv+0x3bac>
  101872:	0f b6 05 45 d7 13 00 	movzx  eax,BYTE PTR ds:0x13d745
  101879:	89 f9                	mov    ecx,edi
  10187b:	83 e1 03             	and    ecx,0x3
  10187e:	c1 e1 05             	shl    ecx,0x5
  101881:	83 e0 9f             	and    eax,0xffffff9f
  101884:	09 c8                	or     eax,ecx
  101886:	81 fd 00 08 00 00    	cmp    ebp,0x800
  10188c:	a2 45 d7 13 00       	mov    ds:0x13d745,al
  101891:	0f 87 06 33 00 00    	ja     104b9d <_ZN4naos3HAL3IDT14InitExceptionsEv+0x3b7d>
  101897:	0f b6 05 45 d7 13 00 	movzx  eax,BYTE PTR ds:0x13d745
  10189e:	0f b6 4c 24 0b       	movzx  ecx,BYTE PTR [esp+0xb]
  1018a3:	83 e0 7f             	and    eax,0x7f
  1018a6:	c1 e1 07             	shl    ecx,0x7
  1018a9:	09 c8                	or     eax,ecx
  1018ab:	81 fd 00 08 00 00    	cmp    ebp,0x800
  1018b1:	a2 45 d7 13 00       	mov    ds:0x13d745,al
  1018b6:	0f 87 ba 32 00 00    	ja     104b76 <_ZN4naos3HAL3IDT14InitExceptionsEv+0x3b56>
  1018bc:	8d 83 42 d7 13 00    	lea    eax,[ebx+0x13d742]
  1018c2:	80 25 45 d7 13 00 ef 	and    BYTE PTR ds:0x13d745,0xef
  1018c9:	3d 00 08 00 00       	cmp    eax,0x800
  1018ce:	0f 87 7e 32 00 00    	ja     104b52 <_ZN4naos3HAL3IDT14InitExceptionsEv+0x3b32>
  1018d4:	8d 83 48 d7 13 00    	lea    eax,[ebx+0x13d748]
  1018da:	ba 08 00 00 00       	mov    edx,0x8
  1018df:	bd 49 85 10 00       	mov    ebp,0x108549
  1018e4:	66 89 15 42 d7 13 00 	mov    WORD PTR ds:0x13d742,dx
  1018eb:	3d 00 08 00 00       	cmp    eax,0x800
  1018f0:	0f 87 38 32 00 00    	ja     104b2e <_ZN4naos3HAL3IDT14InitExceptionsEv+0x3b0e>
  1018f6:	8d 83 4e d7 13 00    	lea    eax,[ebx+0x13d74e]
  1018fc:	66 89 2d 48 d7 13 00 	mov    WORD PTR ds:0x13d748,bp
  101903:	c1 ed 10             	shr    ebp,0x10
  101906:	3d 00 08 00 00       	cmp    eax,0x800
  10190b:	0f 87 f9 31 00 00    	ja     104b0a <_ZN4naos3HAL3IDT14InitExceptionsEv+0x3aea>
  101911:	8d 86 4c d7 13 00    	lea    eax,[esi+0x13d74c]
  101917:	66 89 2d 4e d7 13 00 	mov    WORD PTR ds:0x13d74e,bp
  10191e:	3d 00 08 00 00       	cmp    eax,0x800
  101923:	0f 87 bd 31 00 00    	ja     104ae6 <_ZN4naos3HAL3IDT14InitExceptionsEv+0x3ac6>
  101929:	8d ae 4d d7 13 00    	lea    ebp,[esi+0x13d74d]
  10192f:	c6 05 4c d7 13 00 00 	mov    BYTE PTR ds:0x13d74c,0x0
  101936:	ba 4d d7 13 00       	mov    edx,0x13d74d
  10193b:	81 fd 00 08 00 00    	cmp    ebp,0x800
  101941:	0f 87 78 31 00 00    	ja     104abf <_ZN4naos3HAL3IDT14InitExceptionsEv+0x3a9f>
  101947:	0f b6 05 4d d7 13 00 	movzx  eax,BYTE PTR ds:0x13d74d
  10194e:	83 e0 f0             	and    eax,0xfffffff0
  101951:	0a 44 24 0a          	or     al,BYTE PTR [esp+0xa]
  101955:	81 fd 00 08 00 00    	cmp    ebp,0x800
  10195b:	a2 4d d7 13 00       	mov    ds:0x13d74d,al
  101960:	0f 87 2a 31 00 00    	ja     104a90 <_ZN4naos3HAL3IDT14InitExceptionsEv+0x3a70>
  101966:	0f b6 05 4d d7 13 00 	movzx  eax,BYTE PTR ds:0x13d74d
  10196d:	89 f9                	mov    ecx,edi
  10196f:	83 e1 03             	and    ecx,0x3
  101972:	c1 e1 05             	shl    ecx,0x5
  101975:	83 e0 9f             	and    eax,0xffffff9f
  101978:	09 c8                	or     eax,ecx
  10197a:	81 fd 00 08 00 00    	cmp    ebp,0x800
  101980:	a2 4d d7 13 00       	mov    ds:0x13d74d,al
  101985:	0f 87 d6 30 00 00    	ja     104a61 <_ZN4naos3HAL3IDT14InitExceptionsEv+0x3a41>
  10198b:	0f b6 05 4d d7 13 00 	movzx  eax,BYTE PTR ds:0x13d74d
  101992:	0f b6 4c 24 0b       	movzx  ecx,BYTE PTR [esp+0xb]
  101997:	83 e0 7f             	and    eax,0x7f
  10199a:	c1 e1 07             	shl    ecx,0x7
  10199d:	09 c8                	or     eax,ecx
  10199f:	81 fd 00 08 00 00    	cmp    ebp,0x800
  1019a5:	a2 4d d7 13 00       	mov    ds:0x13d74d,al
  1019aa:	0f 87 8a 30 00 00    	ja     104a3a <_ZN4naos3HAL3IDT14InitExceptionsEv+0x3a1a>
  1019b0:	8d 83 4a d7 13 00    	lea    eax,[ebx+0x13d74a]
  1019b6:	80 25 4d d7 13 00 ef 	and    BYTE PTR ds:0x13d74d,0xef
  1019bd:	3d 00 08 00 00       	cmp    eax,0x800
  1019c2:	0f 87 4e 30 00 00    	ja     104a16 <_ZN4naos3HAL3IDT14InitExceptionsEv+0x39f6>
  1019c8:	8d 83 50 d7 13 00    	lea    eax,[ebx+0x13d750]
  1019ce:	ba 08 00 00 00       	mov    edx,0x8
  1019d3:	bd 53 85 10 00       	mov    ebp,0x108553
  1019d8:	66 89 15 4a d7 13 00 	mov    WORD PTR ds:0x13d74a,dx
  1019df:	3d 00 08 00 00       	cmp    eax,0x800
  1019e4:	0f 87 08 30 00 00    	ja     1049f2 <_ZN4naos3HAL3IDT14InitExceptionsEv+0x39d2>
  1019ea:	8d 83 56 d7 13 00    	lea    eax,[ebx+0x13d756]
  1019f0:	66 89 2d 50 d7 13 00 	mov    WORD PTR ds:0x13d750,bp
  1019f7:	c1 ed 10             	shr    ebp,0x10
  1019fa:	3d 00 08 00 00       	cmp    eax,0x800
  1019ff:	0f 87 c9 2f 00 00    	ja     1049ce <_ZN4naos3HAL3IDT14InitExceptionsEv+0x39ae>
  101a05:	8d 86 54 d7 13 00    	lea    eax,[esi+0x13d754]
  101a0b:	66 89 2d 56 d7 13 00 	mov    WORD PTR ds:0x13d756,bp
  101a12:	3d 00 08 00 00       	cmp    eax,0x800
  101a17:	0f 87 8d 2f 00 00    	ja     1049aa <_ZN4naos3HAL3IDT14InitExceptionsEv+0x398a>
  101a1d:	8d ae 55 d7 13 00    	lea    ebp,[esi+0x13d755]
  101a23:	c6 05 54 d7 13 00 00 	mov    BYTE PTR ds:0x13d754,0x0
  101a2a:	ba 55 d7 13 00       	mov    edx,0x13d755
  101a2f:	81 fd 00 08 00 00    	cmp    ebp,0x800
  101a35:	0f 87 48 2f 00 00    	ja     104983 <_ZN4naos3HAL3IDT14InitExceptionsEv+0x3963>
  101a3b:	0f b6 05 55 d7 13 00 	movzx  eax,BYTE PTR ds:0x13d755
  101a42:	83 e0 f0             	and    eax,0xfffffff0
  101a45:	0a 44 24 0a          	or     al,BYTE PTR [esp+0xa]
  101a49:	81 fd 00 08 00 00    	cmp    ebp,0x800
  101a4f:	a2 55 d7 13 00       	mov    ds:0x13d755,al
  101a54:	0f 87 fa 2e 00 00    	ja     104954 <_ZN4naos3HAL3IDT14InitExceptionsEv+0x3934>
  101a5a:	0f b6 05 55 d7 13 00 	movzx  eax,BYTE PTR ds:0x13d755
  101a61:	89 f9                	mov    ecx,edi
  101a63:	83 e1 03             	and    ecx,0x3
  101a66:	c1 e1 05             	shl    ecx,0x5
  101a69:	83 e0 9f             	and    eax,0xffffff9f
  101a6c:	09 c8                	or     eax,ecx
  101a6e:	81 fd 00 08 00 00    	cmp    ebp,0x800
  101a74:	a2 55 d7 13 00       	mov    ds:0x13d755,al
  101a79:	0f 87 a6 2e 00 00    	ja     104925 <_ZN4naos3HAL3IDT14InitExceptionsEv+0x3905>
  101a7f:	0f b6 05 55 d7 13 00 	movzx  eax,BYTE PTR ds:0x13d755
  101a86:	0f b6 4c 24 0b       	movzx  ecx,BYTE PTR [esp+0xb]
  101a8b:	83 e0 7f             	and    eax,0x7f
  101a8e:	c1 e1 07             	shl    ecx,0x7
  101a91:	09 c8                	or     eax,ecx
  101a93:	81 fd 00 08 00 00    	cmp    ebp,0x800
  101a99:	a2 55 d7 13 00       	mov    ds:0x13d755,al
  101a9e:	0f 87 5a 2e 00 00    	ja     1048fe <_ZN4naos3HAL3IDT14InitExceptionsEv+0x38de>
  101aa4:	8d 83 52 d7 13 00    	lea    eax,[ebx+0x13d752]
  101aaa:	80 25 55 d7 13 00 ef 	and    BYTE PTR ds:0x13d755,0xef
  101ab1:	3d 00 08 00 00       	cmp    eax,0x800
  101ab6:	0f 87 1e 2e 00 00    	ja     1048da <_ZN4naos3HAL3IDT14InitExceptionsEv+0x38ba>
  101abc:	8d 83 58 d7 13 00    	lea    eax,[ebx+0x13d758]
  101ac2:	ba 08 00 00 00       	mov    edx,0x8
  101ac7:	bd 5b 85 10 00       	mov    ebp,0x10855b
  101acc:	66 89 15 52 d7 13 00 	mov    WORD PTR ds:0x13d752,dx
  101ad3:	3d 00 08 00 00       	cmp    eax,0x800
  101ad8:	0f 87 d8 2d 00 00    	ja     1048b6 <_ZN4naos3HAL3IDT14InitExceptionsEv+0x3896>
  101ade:	8d 83 5e d7 13 00    	lea    eax,[ebx+0x13d75e]
  101ae4:	66 89 2d 58 d7 13 00 	mov    WORD PTR ds:0x13d758,bp
  101aeb:	c1 ed 10             	shr    ebp,0x10
  101aee:	3d 00 08 00 00       	cmp    eax,0x800
  101af3:	0f 87 99 2d 00 00    	ja     104892 <_ZN4naos3HAL3IDT14InitExceptionsEv+0x3872>
  101af9:	8d 86 5c d7 13 00    	lea    eax,[esi+0x13d75c]
  101aff:	66 89 2d 5e d7 13 00 	mov    WORD PTR ds:0x13d75e,bp
  101b06:	3d 00 08 00 00       	cmp    eax,0x800
  101b0b:	0f 87 5d 2d 00 00    	ja     10486e <_ZN4naos3HAL3IDT14InitExceptionsEv+0x384e>
  101b11:	8d ae 5d d7 13 00    	lea    ebp,[esi+0x13d75d]
  101b17:	c6 05 5c d7 13 00 00 	mov    BYTE PTR ds:0x13d75c,0x0
  101b1e:	ba 5d d7 13 00       	mov    edx,0x13d75d
  101b23:	81 fd 00 08 00 00    	cmp    ebp,0x800
  101b29:	0f 87 18 2d 00 00    	ja     104847 <_ZN4naos3HAL3IDT14InitExceptionsEv+0x3827>
  101b2f:	0f b6 05 5d d7 13 00 	movzx  eax,BYTE PTR ds:0x13d75d
  101b36:	83 e0 f0             	and    eax,0xfffffff0
  101b39:	0a 44 24 0a          	or     al,BYTE PTR [esp+0xa]
  101b3d:	81 fd 00 08 00 00    	cmp    ebp,0x800
  101b43:	a2 5d d7 13 00       	mov    ds:0x13d75d,al
  101b48:	0f 87 ca 2c 00 00    	ja     104818 <_ZN4naos3HAL3IDT14InitExceptionsEv+0x37f8>
  101b4e:	0f b6 05 5d d7 13 00 	movzx  eax,BYTE PTR ds:0x13d75d
  101b55:	89 f9                	mov    ecx,edi
  101b57:	83 e1 03             	and    ecx,0x3
  101b5a:	c1 e1 05             	shl    ecx,0x5
  101b5d:	83 e0 9f             	and    eax,0xffffff9f
  101b60:	09 c8                	or     eax,ecx
  101b62:	81 fd 00 08 00 00    	cmp    ebp,0x800
  101b68:	a2 5d d7 13 00       	mov    ds:0x13d75d,al
  101b6d:	0f 87 76 2c 00 00    	ja     1047e9 <_ZN4naos3HAL3IDT14InitExceptionsEv+0x37c9>
  101b73:	0f b6 05 5d d7 13 00 	movzx  eax,BYTE PTR ds:0x13d75d
  101b7a:	0f b6 4c 24 0b       	movzx  ecx,BYTE PTR [esp+0xb]
  101b7f:	83 e0 7f             	and    eax,0x7f
  101b82:	c1 e1 07             	shl    ecx,0x7
  101b85:	09 c8                	or     eax,ecx
  101b87:	81 fd 00 08 00 00    	cmp    ebp,0x800
  101b8d:	a2 5d d7 13 00       	mov    ds:0x13d75d,al
  101b92:	0f 87 2a 2c 00 00    	ja     1047c2 <_ZN4naos3HAL3IDT14InitExceptionsEv+0x37a2>
  101b98:	8d 83 5a d7 13 00    	lea    eax,[ebx+0x13d75a]
  101b9e:	80 25 5d d7 13 00 ef 	and    BYTE PTR ds:0x13d75d,0xef
  101ba5:	3d 00 08 00 00       	cmp    eax,0x800
  101baa:	0f 87 ee 2b 00 00    	ja     10479e <_ZN4naos3HAL3IDT14InitExceptionsEv+0x377e>
  101bb0:	8d 83 60 d7 13 00    	lea    eax,[ebx+0x13d760]
  101bb6:	ba 08 00 00 00       	mov    edx,0x8
  101bbb:	bd 63 85 10 00       	mov    ebp,0x108563
  101bc0:	66 89 15 5a d7 13 00 	mov    WORD PTR ds:0x13d75a,dx
  101bc7:	3d 00 08 00 00       	cmp    eax,0x800
  101bcc:	0f 87 a8 2b 00 00    	ja     10477a <_ZN4naos3HAL3IDT14InitExceptionsEv+0x375a>
  101bd2:	8d 83 66 d7 13 00    	lea    eax,[ebx+0x13d766]
  101bd8:	66 89 2d 60 d7 13 00 	mov    WORD PTR ds:0x13d760,bp
  101bdf:	c1 ed 10             	shr    ebp,0x10
  101be2:	3d 00 08 00 00       	cmp    eax,0x800
  101be7:	0f 87 69 2b 00 00    	ja     104756 <_ZN4naos3HAL3IDT14InitExceptionsEv+0x3736>
  101bed:	8d 86 64 d7 13 00    	lea    eax,[esi+0x13d764]
  101bf3:	66 89 2d 66 d7 13 00 	mov    WORD PTR ds:0x13d766,bp
  101bfa:	3d 00 08 00 00       	cmp    eax,0x800
  101bff:	0f 87 2d 2b 00 00    	ja     104732 <_ZN4naos3HAL3IDT14InitExceptionsEv+0x3712>
  101c05:	8d ae 65 d7 13 00    	lea    ebp,[esi+0x13d765]
  101c0b:	c6 05 64 d7 13 00 00 	mov    BYTE PTR ds:0x13d764,0x0
  101c12:	ba 65 d7 13 00       	mov    edx,0x13d765
  101c17:	81 fd 00 08 00 00    	cmp    ebp,0x800
  101c1d:	0f 87 e8 2a 00 00    	ja     10470b <_ZN4naos3HAL3IDT14InitExceptionsEv+0x36eb>
  101c23:	0f b6 05 65 d7 13 00 	movzx  eax,BYTE PTR ds:0x13d765
  101c2a:	83 e0 f0             	and    eax,0xfffffff0
  101c2d:	0a 44 24 0a          	or     al,BYTE PTR [esp+0xa]
  101c31:	81 fd 00 08 00 00    	cmp    ebp,0x800
  101c37:	a2 65 d7 13 00       	mov    ds:0x13d765,al
  101c3c:	0f 87 9a 2a 00 00    	ja     1046dc <_ZN4naos3HAL3IDT14InitExceptionsEv+0x36bc>
  101c42:	0f b6 05 65 d7 13 00 	movzx  eax,BYTE PTR ds:0x13d765
  101c49:	89 f9                	mov    ecx,edi
  101c4b:	83 e1 03             	and    ecx,0x3
  101c4e:	c1 e1 05             	shl    ecx,0x5
  101c51:	83 e0 9f             	and    eax,0xffffff9f
  101c54:	09 c8                	or     eax,ecx
  101c56:	81 fd 00 08 00 00    	cmp    ebp,0x800
  101c5c:	a2 65 d7 13 00       	mov    ds:0x13d765,al
  101c61:	0f 87 46 2a 00 00    	ja     1046ad <_ZN4naos3HAL3IDT14InitExceptionsEv+0x368d>
  101c67:	0f b6 05 65 d7 13 00 	movzx  eax,BYTE PTR ds:0x13d765
  101c6e:	0f b6 4c 24 0b       	movzx  ecx,BYTE PTR [esp+0xb]
  101c73:	83 e0 7f             	and    eax,0x7f
  101c76:	c1 e1 07             	shl    ecx,0x7
  101c79:	09 c8                	or     eax,ecx
  101c7b:	81 fd 00 08 00 00    	cmp    ebp,0x800
  101c81:	a2 65 d7 13 00       	mov    ds:0x13d765,al
  101c86:	0f 87 fa 29 00 00    	ja     104686 <_ZN4naos3HAL3IDT14InitExceptionsEv+0x3666>
  101c8c:	8d 83 62 d7 13 00    	lea    eax,[ebx+0x13d762]
  101c92:	80 25 65 d7 13 00 ef 	and    BYTE PTR ds:0x13d765,0xef
  101c99:	3d 00 08 00 00       	cmp    eax,0x800
  101c9e:	0f 87 be 29 00 00    	ja     104662 <_ZN4naos3HAL3IDT14InitExceptionsEv+0x3642>
  101ca4:	8d 83 68 d7 13 00    	lea    eax,[ebx+0x13d768]
  101caa:	ba 08 00 00 00       	mov    edx,0x8
  101caf:	bd 6b 85 10 00       	mov    ebp,0x10856b
  101cb4:	66 89 15 62 d7 13 00 	mov    WORD PTR ds:0x13d762,dx
  101cbb:	3d 00 08 00 00       	cmp    eax,0x800
  101cc0:	0f 87 78 29 00 00    	ja     10463e <_ZN4naos3HAL3IDT14InitExceptionsEv+0x361e>
  101cc6:	8d 83 6e d7 13 00    	lea    eax,[ebx+0x13d76e]
  101ccc:	66 89 2d 68 d7 13 00 	mov    WORD PTR ds:0x13d768,bp
  101cd3:	c1 ed 10             	shr    ebp,0x10
  101cd6:	3d 00 08 00 00       	cmp    eax,0x800
  101cdb:	0f 87 39 29 00 00    	ja     10461a <_ZN4naos3HAL3IDT14InitExceptionsEv+0x35fa>
  101ce1:	8d 86 6c d7 13 00    	lea    eax,[esi+0x13d76c]
  101ce7:	66 89 2d 6e d7 13 00 	mov    WORD PTR ds:0x13d76e,bp
  101cee:	3d 00 08 00 00       	cmp    eax,0x800
  101cf3:	0f 87 fd 28 00 00    	ja     1045f6 <_ZN4naos3HAL3IDT14InitExceptionsEv+0x35d6>
  101cf9:	8d ae 6d d7 13 00    	lea    ebp,[esi+0x13d76d]
  101cff:	c6 05 6c d7 13 00 00 	mov    BYTE PTR ds:0x13d76c,0x0
  101d06:	ba 6d d7 13 00       	mov    edx,0x13d76d
  101d0b:	81 fd 00 08 00 00    	cmp    ebp,0x800
  101d11:	0f 87 b8 28 00 00    	ja     1045cf <_ZN4naos3HAL3IDT14InitExceptionsEv+0x35af>
  101d17:	0f b6 05 6d d7 13 00 	movzx  eax,BYTE PTR ds:0x13d76d
  101d1e:	83 e0 f0             	and    eax,0xfffffff0
  101d21:	0a 44 24 0a          	or     al,BYTE PTR [esp+0xa]
  101d25:	81 fd 00 08 00 00    	cmp    ebp,0x800
  101d2b:	a2 6d d7 13 00       	mov    ds:0x13d76d,al
  101d30:	0f 87 6a 28 00 00    	ja     1045a0 <_ZN4naos3HAL3IDT14InitExceptionsEv+0x3580>
  101d36:	0f b6 05 6d d7 13 00 	movzx  eax,BYTE PTR ds:0x13d76d
  101d3d:	89 f9                	mov    ecx,edi
  101d3f:	83 e1 03             	and    ecx,0x3
  101d42:	c1 e1 05             	shl    ecx,0x5
  101d45:	83 e0 9f             	and    eax,0xffffff9f
  101d48:	09 c8                	or     eax,ecx
  101d4a:	81 fd 00 08 00 00    	cmp    ebp,0x800
  101d50:	a2 6d d7 13 00       	mov    ds:0x13d76d,al
  101d55:	0f 87 16 28 00 00    	ja     104571 <_ZN4naos3HAL3IDT14InitExceptionsEv+0x3551>
  101d5b:	0f b6 05 6d d7 13 00 	movzx  eax,BYTE PTR ds:0x13d76d
  101d62:	0f b6 4c 24 0b       	movzx  ecx,BYTE PTR [esp+0xb]
  101d67:	83 e0 7f             	and    eax,0x7f
  101d6a:	c1 e1 07             	shl    ecx,0x7
  101d6d:	09 c8                	or     eax,ecx
  101d6f:	81 fd 00 08 00 00    	cmp    ebp,0x800
  101d75:	a2 6d d7 13 00       	mov    ds:0x13d76d,al
  101d7a:	0f 87 ca 27 00 00    	ja     10454a <_ZN4naos3HAL3IDT14InitExceptionsEv+0x352a>
  101d80:	8d 83 6a d7 13 00    	lea    eax,[ebx+0x13d76a]
  101d86:	80 25 6d d7 13 00 ef 	and    BYTE PTR ds:0x13d76d,0xef
  101d8d:	3d 00 08 00 00       	cmp    eax,0x800
  101d92:	0f 87 8e 27 00 00    	ja     104526 <_ZN4naos3HAL3IDT14InitExceptionsEv+0x3506>
  101d98:	8d 83 70 d7 13 00    	lea    eax,[ebx+0x13d770]
  101d9e:	ba 08 00 00 00       	mov    edx,0x8
  101da3:	bd 73 85 10 00       	mov    ebp,0x108573
  101da8:	66 89 15 6a d7 13 00 	mov    WORD PTR ds:0x13d76a,dx
  101daf:	3d 00 08 00 00       	cmp    eax,0x800
  101db4:	0f 87 48 27 00 00    	ja     104502 <_ZN4naos3HAL3IDT14InitExceptionsEv+0x34e2>
  101dba:	8d 83 76 d7 13 00    	lea    eax,[ebx+0x13d776]
  101dc0:	66 89 2d 70 d7 13 00 	mov    WORD PTR ds:0x13d770,bp
  101dc7:	c1 ed 10             	shr    ebp,0x10
  101dca:	3d 00 08 00 00       	cmp    eax,0x800
  101dcf:	0f 87 09 27 00 00    	ja     1044de <_ZN4naos3HAL3IDT14InitExceptionsEv+0x34be>
  101dd5:	8d 86 74 d7 13 00    	lea    eax,[esi+0x13d774]
  101ddb:	66 89 2d 76 d7 13 00 	mov    WORD PTR ds:0x13d776,bp
  101de2:	3d 00 08 00 00       	cmp    eax,0x800
  101de7:	0f 87 cd 26 00 00    	ja     1044ba <_ZN4naos3HAL3IDT14InitExceptionsEv+0x349a>
  101ded:	8d ae 75 d7 13 00    	lea    ebp,[esi+0x13d775]
  101df3:	c6 05 74 d7 13 00 00 	mov    BYTE PTR ds:0x13d774,0x0
  101dfa:	ba 75 d7 13 00       	mov    edx,0x13d775
  101dff:	81 fd 00 08 00 00    	cmp    ebp,0x800
  101e05:	0f 87 88 26 00 00    	ja     104493 <_ZN4naos3HAL3IDT14InitExceptionsEv+0x3473>
  101e0b:	0f b6 05 75 d7 13 00 	movzx  eax,BYTE PTR ds:0x13d775
  101e12:	83 e0 f0             	and    eax,0xfffffff0
  101e15:	0a 44 24 0a          	or     al,BYTE PTR [esp+0xa]
  101e19:	81 fd 00 08 00 00    	cmp    ebp,0x800
  101e1f:	a2 75 d7 13 00       	mov    ds:0x13d775,al
  101e24:	0f 87 3a 26 00 00    	ja     104464 <_ZN4naos3HAL3IDT14InitExceptionsEv+0x3444>
  101e2a:	0f b6 05 75 d7 13 00 	movzx  eax,BYTE PTR ds:0x13d775
  101e31:	89 f9                	mov    ecx,edi
  101e33:	83 e1 03             	and    ecx,0x3
  101e36:	c1 e1 05             	shl    ecx,0x5
  101e39:	83 e0 9f             	and    eax,0xffffff9f
  101e3c:	09 c8                	or     eax,ecx
  101e3e:	81 fd 00 08 00 00    	cmp    ebp,0x800
  101e44:	a2 75 d7 13 00       	mov    ds:0x13d775,al
  101e49:	0f 87 e6 25 00 00    	ja     104435 <_ZN4naos3HAL3IDT14InitExceptionsEv+0x3415>
  101e4f:	0f b6 05 75 d7 13 00 	movzx  eax,BYTE PTR ds:0x13d775
  101e56:	0f b6 4c 24 0b       	movzx  ecx,BYTE PTR [esp+0xb]
  101e5b:	83 e0 7f             	and    eax,0x7f
  101e5e:	c1 e1 07             	shl    ecx,0x7
  101e61:	09 c8                	or     eax,ecx
  101e63:	81 fd 00 08 00 00    	cmp    ebp,0x800
  101e69:	a2 75 d7 13 00       	mov    ds:0x13d775,al
  101e6e:	0f 87 9a 25 00 00    	ja     10440e <_ZN4naos3HAL3IDT14InitExceptionsEv+0x33ee>
  101e74:	8d 83 72 d7 13 00    	lea    eax,[ebx+0x13d772]
  101e7a:	80 25 75 d7 13 00 ef 	and    BYTE PTR ds:0x13d775,0xef
  101e81:	3d 00 08 00 00       	cmp    eax,0x800
  101e86:	0f 87 5e 25 00 00    	ja     1043ea <_ZN4naos3HAL3IDT14InitExceptionsEv+0x33ca>
  101e8c:	8d 83 78 d7 13 00    	lea    eax,[ebx+0x13d778]
  101e92:	ba 08 00 00 00       	mov    edx,0x8
  101e97:	bd 7b 85 10 00       	mov    ebp,0x10857b
  101e9c:	66 89 15 72 d7 13 00 	mov    WORD PTR ds:0x13d772,dx
  101ea3:	3d 00 08 00 00       	cmp    eax,0x800
  101ea8:	0f 87 18 25 00 00    	ja     1043c6 <_ZN4naos3HAL3IDT14InitExceptionsEv+0x33a6>
  101eae:	8d 83 7e d7 13 00    	lea    eax,[ebx+0x13d77e]
  101eb4:	66 89 2d 78 d7 13 00 	mov    WORD PTR ds:0x13d778,bp
  101ebb:	c1 ed 10             	shr    ebp,0x10
  101ebe:	3d 00 08 00 00       	cmp    eax,0x800
  101ec3:	0f 87 d9 24 00 00    	ja     1043a2 <_ZN4naos3HAL3IDT14InitExceptionsEv+0x3382>
  101ec9:	8d 86 7c d7 13 00    	lea    eax,[esi+0x13d77c]
  101ecf:	66 89 2d 7e d7 13 00 	mov    WORD PTR ds:0x13d77e,bp
  101ed6:	3d 00 08 00 00       	cmp    eax,0x800
  101edb:	0f 87 9d 24 00 00    	ja     10437e <_ZN4naos3HAL3IDT14InitExceptionsEv+0x335e>
  101ee1:	8d ae 7d d7 13 00    	lea    ebp,[esi+0x13d77d]
  101ee7:	c6 05 7c d7 13 00 00 	mov    BYTE PTR ds:0x13d77c,0x0
  101eee:	ba 7d d7 13 00       	mov    edx,0x13d77d
  101ef3:	81 fd 00 08 00 00    	cmp    ebp,0x800
  101ef9:	0f 87 58 24 00 00    	ja     104357 <_ZN4naos3HAL3IDT14InitExceptionsEv+0x3337>
  101eff:	0f b6 05 7d d7 13 00 	movzx  eax,BYTE PTR ds:0x13d77d
  101f06:	83 e0 f0             	and    eax,0xfffffff0
  101f09:	0a 44 24 0a          	or     al,BYTE PTR [esp+0xa]
  101f0d:	81 fd 00 08 00 00    	cmp    ebp,0x800
  101f13:	a2 7d d7 13 00       	mov    ds:0x13d77d,al
  101f18:	0f 87 0a 24 00 00    	ja     104328 <_ZN4naos3HAL3IDT14InitExceptionsEv+0x3308>
  101f1e:	0f b6 05 7d d7 13 00 	movzx  eax,BYTE PTR ds:0x13d77d
  101f25:	89 f9                	mov    ecx,edi
  101f27:	83 e1 03             	and    ecx,0x3
  101f2a:	c1 e1 05             	shl    ecx,0x5
  101f2d:	83 e0 9f             	and    eax,0xffffff9f
  101f30:	09 c8                	or     eax,ecx
  101f32:	81 fd 00 08 00 00    	cmp    ebp,0x800
  101f38:	a2 7d d7 13 00       	mov    ds:0x13d77d,al
  101f3d:	0f 87 b6 23 00 00    	ja     1042f9 <_ZN4naos3HAL3IDT14InitExceptionsEv+0x32d9>
  101f43:	0f b6 05 7d d7 13 00 	movzx  eax,BYTE PTR ds:0x13d77d
  101f4a:	0f b6 4c 24 0b       	movzx  ecx,BYTE PTR [esp+0xb]
  101f4f:	83 e0 7f             	and    eax,0x7f
  101f52:	c1 e1 07             	shl    ecx,0x7
  101f55:	09 c8                	or     eax,ecx
  101f57:	81 fd 00 08 00 00    	cmp    ebp,0x800
  101f5d:	a2 7d d7 13 00       	mov    ds:0x13d77d,al
  101f62:	0f 87 6a 23 00 00    	ja     1042d2 <_ZN4naos3HAL3IDT14InitExceptionsEv+0x32b2>
  101f68:	8d 83 7a d7 13 00    	lea    eax,[ebx+0x13d77a]
  101f6e:	80 25 7d d7 13 00 ef 	and    BYTE PTR ds:0x13d77d,0xef
  101f75:	3d 00 08 00 00       	cmp    eax,0x800
  101f7a:	0f 87 2e 23 00 00    	ja     1042ae <_ZN4naos3HAL3IDT14InitExceptionsEv+0x328e>
  101f80:	8d 83 80 d7 13 00    	lea    eax,[ebx+0x13d780]
  101f86:	ba 08 00 00 00       	mov    edx,0x8
  101f8b:	bd 85 85 10 00       	mov    ebp,0x108585
  101f90:	66 89 15 7a d7 13 00 	mov    WORD PTR ds:0x13d77a,dx
  101f97:	3d 00 08 00 00       	cmp    eax,0x800
  101f9c:	0f 87 e8 22 00 00    	ja     10428a <_ZN4naos3HAL3IDT14InitExceptionsEv+0x326a>
  101fa2:	8d 83 86 d7 13 00    	lea    eax,[ebx+0x13d786]
  101fa8:	66 89 2d 80 d7 13 00 	mov    WORD PTR ds:0x13d780,bp
  101faf:	c1 ed 10             	shr    ebp,0x10
  101fb2:	3d 00 08 00 00       	cmp    eax,0x800
  101fb7:	0f 87 a9 22 00 00    	ja     104266 <_ZN4naos3HAL3IDT14InitExceptionsEv+0x3246>
  101fbd:	8d 86 84 d7 13 00    	lea    eax,[esi+0x13d784]
  101fc3:	66 89 2d 86 d7 13 00 	mov    WORD PTR ds:0x13d786,bp
  101fca:	3d 00 08 00 00       	cmp    eax,0x800
  101fcf:	0f 87 6d 22 00 00    	ja     104242 <_ZN4naos3HAL3IDT14InitExceptionsEv+0x3222>
  101fd5:	8d ae 85 d7 13 00    	lea    ebp,[esi+0x13d785]
  101fdb:	c6 05 84 d7 13 00 00 	mov    BYTE PTR ds:0x13d784,0x0
  101fe2:	ba 85 d7 13 00       	mov    edx,0x13d785
  101fe7:	81 fd 00 08 00 00    	cmp    ebp,0x800
  101fed:	0f 87 28 22 00 00    	ja     10421b <_ZN4naos3HAL3IDT14InitExceptionsEv+0x31fb>
  101ff3:	0f b6 05 85 d7 13 00 	movzx  eax,BYTE PTR ds:0x13d785
  101ffa:	83 e0 f0             	and    eax,0xfffffff0
  101ffd:	0a 44 24 0a          	or     al,BYTE PTR [esp+0xa]
  102001:	81 fd 00 08 00 00    	cmp    ebp,0x800
  102007:	a2 85 d7 13 00       	mov    ds:0x13d785,al
  10200c:	0f 87 da 21 00 00    	ja     1041ec <_ZN4naos3HAL3IDT14InitExceptionsEv+0x31cc>
  102012:	0f b6 05 85 d7 13 00 	movzx  eax,BYTE PTR ds:0x13d785
  102019:	89 f9                	mov    ecx,edi
  10201b:	83 e1 03             	and    ecx,0x3
  10201e:	c1 e1 05             	shl    ecx,0x5
  102021:	83 e0 9f             	and    eax,0xffffff9f
  102024:	09 c8                	or     eax,ecx
  102026:	81 fd 00 08 00 00    	cmp    ebp,0x800
  10202c:	a2 85 d7 13 00       	mov    ds:0x13d785,al
  102031:	0f 87 86 21 00 00    	ja     1041bd <_ZN4naos3HAL3IDT14InitExceptionsEv+0x319d>
  102037:	0f b6 05 85 d7 13 00 	movzx  eax,BYTE PTR ds:0x13d785
  10203e:	0f b6 4c 24 0b       	movzx  ecx,BYTE PTR [esp+0xb]
  102043:	83 e0 7f             	and    eax,0x7f
  102046:	c1 e1 07             	shl    ecx,0x7
  102049:	09 c8                	or     eax,ecx
  10204b:	81 fd 00 08 00 00    	cmp    ebp,0x800
  102051:	a2 85 d7 13 00       	mov    ds:0x13d785,al
  102056:	0f 87 3a 21 00 00    	ja     104196 <_ZN4naos3HAL3IDT14InitExceptionsEv+0x3176>
  10205c:	8d 83 82 d7 13 00    	lea    eax,[ebx+0x13d782]
  102062:	80 25 85 d7 13 00 ef 	and    BYTE PTR ds:0x13d785,0xef
  102069:	3d 00 08 00 00       	cmp    eax,0x800
  10206e:	0f 87 fe 20 00 00    	ja     104172 <_ZN4naos3HAL3IDT14InitExceptionsEv+0x3152>
  102074:	8d 83 88 d7 13 00    	lea    eax,[ebx+0x13d788]
  10207a:	ba 08 00 00 00       	mov    edx,0x8
  10207f:	bd 8f 85 10 00       	mov    ebp,0x10858f
  102084:	66 89 15 82 d7 13 00 	mov    WORD PTR ds:0x13d782,dx
  10208b:	3d 00 08 00 00       	cmp    eax,0x800
  102090:	0f 87 b8 20 00 00    	ja     10414e <_ZN4naos3HAL3IDT14InitExceptionsEv+0x312e>
  102096:	8d 83 8e d7 13 00    	lea    eax,[ebx+0x13d78e]
  10209c:	66 89 2d 88 d7 13 00 	mov    WORD PTR ds:0x13d788,bp
  1020a3:	c1 ed 10             	shr    ebp,0x10
  1020a6:	3d 00 08 00 00       	cmp    eax,0x800
  1020ab:	0f 87 79 20 00 00    	ja     10412a <_ZN4naos3HAL3IDT14InitExceptionsEv+0x310a>
  1020b1:	8d 86 8c d7 13 00    	lea    eax,[esi+0x13d78c]
  1020b7:	66 89 2d 8e d7 13 00 	mov    WORD PTR ds:0x13d78e,bp
  1020be:	3d 00 08 00 00       	cmp    eax,0x800
  1020c3:	0f 87 3d 20 00 00    	ja     104106 <_ZN4naos3HAL3IDT14InitExceptionsEv+0x30e6>
  1020c9:	8d ae 8d d7 13 00    	lea    ebp,[esi+0x13d78d]
  1020cf:	c6 05 8c d7 13 00 00 	mov    BYTE PTR ds:0x13d78c,0x0
  1020d6:	ba 8d d7 13 00       	mov    edx,0x13d78d
  1020db:	81 fd 00 08 00 00    	cmp    ebp,0x800
  1020e1:	0f 87 f8 1f 00 00    	ja     1040df <_ZN4naos3HAL3IDT14InitExceptionsEv+0x30bf>
  1020e7:	0f b6 05 8d d7 13 00 	movzx  eax,BYTE PTR ds:0x13d78d
  1020ee:	83 e0 f0             	and    eax,0xfffffff0
  1020f1:	0a 44 24 0a          	or     al,BYTE PTR [esp+0xa]
  1020f5:	81 fd 00 08 00 00    	cmp    ebp,0x800
  1020fb:	a2 8d d7 13 00       	mov    ds:0x13d78d,al
  102100:	0f 87 aa 1f 00 00    	ja     1040b0 <_ZN4naos3HAL3IDT14InitExceptionsEv+0x3090>
  102106:	0f b6 05 8d d7 13 00 	movzx  eax,BYTE PTR ds:0x13d78d
  10210d:	89 f9                	mov    ecx,edi
  10210f:	83 e1 03             	and    ecx,0x3
  102112:	c1 e1 05             	shl    ecx,0x5
  102115:	83 e0 9f             	and    eax,0xffffff9f
  102118:	09 c8                	or     eax,ecx
  10211a:	81 fd 00 08 00 00    	cmp    ebp,0x800
  102120:	a2 8d d7 13 00       	mov    ds:0x13d78d,al
  102125:	0f 87 56 1f 00 00    	ja     104081 <_ZN4naos3HAL3IDT14InitExceptionsEv+0x3061>
  10212b:	0f b6 05 8d d7 13 00 	movzx  eax,BYTE PTR ds:0x13d78d
  102132:	0f b6 4c 24 0b       	movzx  ecx,BYTE PTR [esp+0xb]
  102137:	83 e0 7f             	and    eax,0x7f
  10213a:	c1 e1 07             	shl    ecx,0x7
  10213d:	09 c8                	or     eax,ecx
  10213f:	81 fd 00 08 00 00    	cmp    ebp,0x800
  102145:	a2 8d d7 13 00       	mov    ds:0x13d78d,al
  10214a:	0f 87 0a 1f 00 00    	ja     10405a <_ZN4naos3HAL3IDT14InitExceptionsEv+0x303a>
  102150:	8d 83 8a d7 13 00    	lea    eax,[ebx+0x13d78a]
  102156:	80 25 8d d7 13 00 ef 	and    BYTE PTR ds:0x13d78d,0xef
  10215d:	3d 00 08 00 00       	cmp    eax,0x800
  102162:	0f 87 ce 1e 00 00    	ja     104036 <_ZN4naos3HAL3IDT14InitExceptionsEv+0x3016>
  102168:	8d 83 90 d7 13 00    	lea    eax,[ebx+0x13d790]
  10216e:	ba 08 00 00 00       	mov    edx,0x8
  102173:	bd 99 85 10 00       	mov    ebp,0x108599
  102178:	66 89 15 8a d7 13 00 	mov    WORD PTR ds:0x13d78a,dx
  10217f:	3d 00 08 00 00       	cmp    eax,0x800
  102184:	0f 87 88 1e 00 00    	ja     104012 <_ZN4naos3HAL3IDT14InitExceptionsEv+0x2ff2>
  10218a:	8d 83 96 d7 13 00    	lea    eax,[ebx+0x13d796]
  102190:	66 89 2d 90 d7 13 00 	mov    WORD PTR ds:0x13d790,bp
  102197:	c1 ed 10             	shr    ebp,0x10
  10219a:	3d 00 08 00 00       	cmp    eax,0x800
  10219f:	0f 87 49 1e 00 00    	ja     103fee <_ZN4naos3HAL3IDT14InitExceptionsEv+0x2fce>
  1021a5:	8d 86 94 d7 13 00    	lea    eax,[esi+0x13d794]
  1021ab:	66 89 2d 96 d7 13 00 	mov    WORD PTR ds:0x13d796,bp
  1021b2:	3d 00 08 00 00       	cmp    eax,0x800
  1021b7:	0f 87 0d 1e 00 00    	ja     103fca <_ZN4naos3HAL3IDT14InitExceptionsEv+0x2faa>
  1021bd:	8d ae 95 d7 13 00    	lea    ebp,[esi+0x13d795]
  1021c3:	c6 05 94 d7 13 00 00 	mov    BYTE PTR ds:0x13d794,0x0
  1021ca:	ba 95 d7 13 00       	mov    edx,0x13d795
  1021cf:	81 fd 00 08 00 00    	cmp    ebp,0x800
  1021d5:	0f 87 c8 1d 00 00    	ja     103fa3 <_ZN4naos3HAL3IDT14InitExceptionsEv+0x2f83>
  1021db:	0f b6 05 95 d7 13 00 	movzx  eax,BYTE PTR ds:0x13d795
  1021e2:	83 e0 f0             	and    eax,0xfffffff0
  1021e5:	0a 44 24 0a          	or     al,BYTE PTR [esp+0xa]
  1021e9:	81 fd 00 08 00 00    	cmp    ebp,0x800
  1021ef:	a2 95 d7 13 00       	mov    ds:0x13d795,al
  1021f4:	0f 87 7a 1d 00 00    	ja     103f74 <_ZN4naos3HAL3IDT14InitExceptionsEv+0x2f54>
  1021fa:	0f b6 05 95 d7 13 00 	movzx  eax,BYTE PTR ds:0x13d795
  102201:	89 f9                	mov    ecx,edi
  102203:	83 e1 03             	and    ecx,0x3
  102206:	c1 e1 05             	shl    ecx,0x5
  102209:	83 e0 9f             	and    eax,0xffffff9f
  10220c:	09 c8                	or     eax,ecx
  10220e:	81 fd 00 08 00 00    	cmp    ebp,0x800
  102214:	a2 95 d7 13 00       	mov    ds:0x13d795,al
  102219:	0f 87 26 1d 00 00    	ja     103f45 <_ZN4naos3HAL3IDT14InitExceptionsEv+0x2f25>
  10221f:	0f b6 05 95 d7 13 00 	movzx  eax,BYTE PTR ds:0x13d795
  102226:	0f b6 4c 24 0b       	movzx  ecx,BYTE PTR [esp+0xb]
  10222b:	83 e0 7f             	and    eax,0x7f
  10222e:	c1 e1 07             	shl    ecx,0x7
  102231:	09 c8                	or     eax,ecx
  102233:	81 fd 00 08 00 00    	cmp    ebp,0x800
  102239:	a2 95 d7 13 00       	mov    ds:0x13d795,al
  10223e:	0f 87 da 1c 00 00    	ja     103f1e <_ZN4naos3HAL3IDT14InitExceptionsEv+0x2efe>
  102244:	8d 83 92 d7 13 00    	lea    eax,[ebx+0x13d792]
  10224a:	80 25 95 d7 13 00 ef 	and    BYTE PTR ds:0x13d795,0xef
  102251:	3d 00 08 00 00       	cmp    eax,0x800
  102256:	0f 87 9e 1c 00 00    	ja     103efa <_ZN4naos3HAL3IDT14InitExceptionsEv+0x2eda>
  10225c:	8d 83 98 d7 13 00    	lea    eax,[ebx+0x13d798]
  102262:	ba 08 00 00 00       	mov    edx,0x8
  102267:	bd a3 85 10 00       	mov    ebp,0x1085a3
  10226c:	66 89 15 92 d7 13 00 	mov    WORD PTR ds:0x13d792,dx
  102273:	3d 00 08 00 00       	cmp    eax,0x800
  102278:	0f 87 58 1c 00 00    	ja     103ed6 <_ZN4naos3HAL3IDT14InitExceptionsEv+0x2eb6>
  10227e:	8d 83 9e d7 13 00    	lea    eax,[ebx+0x13d79e]
  102284:	66 89 2d 98 d7 13 00 	mov    WORD PTR ds:0x13d798,bp
  10228b:	c1 ed 10             	shr    ebp,0x10
  10228e:	3d 00 08 00 00       	cmp    eax,0x800
  102293:	0f 87 19 1c 00 00    	ja     103eb2 <_ZN4naos3HAL3IDT14InitExceptionsEv+0x2e92>
  102299:	8d 86 9c d7 13 00    	lea    eax,[esi+0x13d79c]
  10229f:	66 89 2d 9e d7 13 00 	mov    WORD PTR ds:0x13d79e,bp
  1022a6:	3d 00 08 00 00       	cmp    eax,0x800
  1022ab:	0f 87 dd 1b 00 00    	ja     103e8e <_ZN4naos3HAL3IDT14InitExceptionsEv+0x2e6e>
  1022b1:	8d ae 9d d7 13 00    	lea    ebp,[esi+0x13d79d]
  1022b7:	c6 05 9c d7 13 00 00 	mov    BYTE PTR ds:0x13d79c,0x0
  1022be:	ba 9d d7 13 00       	mov    edx,0x13d79d
  1022c3:	81 fd 00 08 00 00    	cmp    ebp,0x800
  1022c9:	0f 87 98 1b 00 00    	ja     103e67 <_ZN4naos3HAL3IDT14InitExceptionsEv+0x2e47>
  1022cf:	0f b6 05 9d d7 13 00 	movzx  eax,BYTE PTR ds:0x13d79d
  1022d6:	83 e0 f0             	and    eax,0xfffffff0
  1022d9:	0a 44 24 0a          	or     al,BYTE PTR [esp+0xa]
  1022dd:	81 fd 00 08 00 00    	cmp    ebp,0x800
  1022e3:	a2 9d d7 13 00       	mov    ds:0x13d79d,al
  1022e8:	0f 87 4a 1b 00 00    	ja     103e38 <_ZN4naos3HAL3IDT14InitExceptionsEv+0x2e18>
  1022ee:	0f b6 05 9d d7 13 00 	movzx  eax,BYTE PTR ds:0x13d79d
  1022f5:	89 f9                	mov    ecx,edi
  1022f7:	83 e1 03             	and    ecx,0x3
  1022fa:	c1 e1 05             	shl    ecx,0x5
  1022fd:	83 e0 9f             	and    eax,0xffffff9f
  102300:	09 c8                	or     eax,ecx
  102302:	81 fd 00 08 00 00    	cmp    ebp,0x800
  102308:	a2 9d d7 13 00       	mov    ds:0x13d79d,al
  10230d:	0f 87 f6 1a 00 00    	ja     103e09 <_ZN4naos3HAL3IDT14InitExceptionsEv+0x2de9>
  102313:	0f b6 05 9d d7 13 00 	movzx  eax,BYTE PTR ds:0x13d79d
  10231a:	0f b6 4c 24 0b       	movzx  ecx,BYTE PTR [esp+0xb]
  10231f:	83 e0 7f             	and    eax,0x7f
  102322:	c1 e1 07             	shl    ecx,0x7
  102325:	09 c8                	or     eax,ecx
  102327:	81 fd 00 08 00 00    	cmp    ebp,0x800
  10232d:	a2 9d d7 13 00       	mov    ds:0x13d79d,al
  102332:	0f 87 aa 1a 00 00    	ja     103de2 <_ZN4naos3HAL3IDT14InitExceptionsEv+0x2dc2>
  102338:	8d 83 9a d7 13 00    	lea    eax,[ebx+0x13d79a]
  10233e:	80 25 9d d7 13 00 ef 	and    BYTE PTR ds:0x13d79d,0xef
  102345:	3d 00 08 00 00       	cmp    eax,0x800
  10234a:	0f 87 6e 1a 00 00    	ja     103dbe <_ZN4naos3HAL3IDT14InitExceptionsEv+0x2d9e>
  102350:	8d 83 a0 d7 13 00    	lea    eax,[ebx+0x13d7a0]
  102356:	ba 08 00 00 00       	mov    edx,0x8
  10235b:	bd ad 85 10 00       	mov    ebp,0x1085ad
  102360:	66 89 15 9a d7 13 00 	mov    WORD PTR ds:0x13d79a,dx
  102367:	3d 00 08 00 00       	cmp    eax,0x800
  10236c:	0f 87 28 1a 00 00    	ja     103d9a <_ZN4naos3HAL3IDT14InitExceptionsEv+0x2d7a>
  102372:	8d 83 a6 d7 13 00    	lea    eax,[ebx+0x13d7a6]
  102378:	66 89 2d a0 d7 13 00 	mov    WORD PTR ds:0x13d7a0,bp
  10237f:	c1 ed 10             	shr    ebp,0x10
  102382:	3d 00 08 00 00       	cmp    eax,0x800
  102387:	0f 87 e9 19 00 00    	ja     103d76 <_ZN4naos3HAL3IDT14InitExceptionsEv+0x2d56>
  10238d:	8d 86 a4 d7 13 00    	lea    eax,[esi+0x13d7a4]
  102393:	66 89 2d a6 d7 13 00 	mov    WORD PTR ds:0x13d7a6,bp
  10239a:	3d 00 08 00 00       	cmp    eax,0x800
  10239f:	0f 87 ad 19 00 00    	ja     103d52 <_ZN4naos3HAL3IDT14InitExceptionsEv+0x2d32>
  1023a5:	8d ae a5 d7 13 00    	lea    ebp,[esi+0x13d7a5]
  1023ab:	c6 05 a4 d7 13 00 00 	mov    BYTE PTR ds:0x13d7a4,0x0
  1023b2:	ba a5 d7 13 00       	mov    edx,0x13d7a5
  1023b7:	81 fd 00 08 00 00    	cmp    ebp,0x800
  1023bd:	0f 87 68 19 00 00    	ja     103d2b <_ZN4naos3HAL3IDT14InitExceptionsEv+0x2d0b>
  1023c3:	0f b6 05 a5 d7 13 00 	movzx  eax,BYTE PTR ds:0x13d7a5
  1023ca:	83 e0 f0             	and    eax,0xfffffff0
  1023cd:	0a 44 24 0a          	or     al,BYTE PTR [esp+0xa]
  1023d1:	81 fd 00 08 00 00    	cmp    ebp,0x800
  1023d7:	a2 a5 d7 13 00       	mov    ds:0x13d7a5,al
  1023dc:	0f 87 1a 19 00 00    	ja     103cfc <_ZN4naos3HAL3IDT14InitExceptionsEv+0x2cdc>
  1023e2:	0f b6 05 a5 d7 13 00 	movzx  eax,BYTE PTR ds:0x13d7a5
  1023e9:	89 f9                	mov    ecx,edi
  1023eb:	83 e1 03             	and    ecx,0x3
  1023ee:	c1 e1 05             	shl    ecx,0x5
  1023f1:	83 e0 9f             	and    eax,0xffffff9f
  1023f4:	09 c8                	or     eax,ecx
  1023f6:	81 fd 00 08 00 00    	cmp    ebp,0x800
  1023fc:	a2 a5 d7 13 00       	mov    ds:0x13d7a5,al
  102401:	0f 87 c6 18 00 00    	ja     103ccd <_ZN4naos3HAL3IDT14InitExceptionsEv+0x2cad>
  102407:	0f b6 05 a5 d7 13 00 	movzx  eax,BYTE PTR ds:0x13d7a5
  10240e:	0f b6 4c 24 0b       	movzx  ecx,BYTE PTR [esp+0xb]
  102413:	83 e0 7f             	and    eax,0x7f
  102416:	c1 e1 07             	shl    ecx,0x7
  102419:	09 c8                	or     eax,ecx
  10241b:	81 fd 00 08 00 00    	cmp    ebp,0x800
  102421:	a2 a5 d7 13 00       	mov    ds:0x13d7a5,al
  102426:	0f 87 7a 18 00 00    	ja     103ca6 <_ZN4naos3HAL3IDT14InitExceptionsEv+0x2c86>
  10242c:	8d 83 a2 d7 13 00    	lea    eax,[ebx+0x13d7a2]
  102432:	80 25 a5 d7 13 00 ef 	and    BYTE PTR ds:0x13d7a5,0xef
  102439:	3d 00 08 00 00       	cmp    eax,0x800
  10243e:	0f 87 3e 18 00 00    	ja     103c82 <_ZN4naos3HAL3IDT14InitExceptionsEv+0x2c62>
  102444:	8d 83 a8 d7 13 00    	lea    eax,[ebx+0x13d7a8]
  10244a:	ba 08 00 00 00       	mov    edx,0x8
  10244f:	bd b7 85 10 00       	mov    ebp,0x1085b7
  102454:	66 89 15 a2 d7 13 00 	mov    WORD PTR ds:0x13d7a2,dx
  10245b:	3d 00 08 00 00       	cmp    eax,0x800
  102460:	0f 87 f8 17 00 00    	ja     103c5e <_ZN4naos3HAL3IDT14InitExceptionsEv+0x2c3e>
  102466:	8d 83 ae d7 13 00    	lea    eax,[ebx+0x13d7ae]
  10246c:	66 89 2d a8 d7 13 00 	mov    WORD PTR ds:0x13d7a8,bp
  102473:	c1 ed 10             	shr    ebp,0x10
  102476:	3d 00 08 00 00       	cmp    eax,0x800
  10247b:	0f 87 b9 17 00 00    	ja     103c3a <_ZN4naos3HAL3IDT14InitExceptionsEv+0x2c1a>
  102481:	8d 86 ac d7 13 00    	lea    eax,[esi+0x13d7ac]
  102487:	66 89 2d ae d7 13 00 	mov    WORD PTR ds:0x13d7ae,bp
  10248e:	3d 00 08 00 00       	cmp    eax,0x800
  102493:	0f 87 7d 17 00 00    	ja     103c16 <_ZN4naos3HAL3IDT14InitExceptionsEv+0x2bf6>
  102499:	8d ae ad d7 13 00    	lea    ebp,[esi+0x13d7ad]
  10249f:	c6 05 ac d7 13 00 00 	mov    BYTE PTR ds:0x13d7ac,0x0
  1024a6:	ba ad d7 13 00       	mov    edx,0x13d7ad
  1024ab:	81 fd 00 08 00 00    	cmp    ebp,0x800
  1024b1:	0f 87 38 17 00 00    	ja     103bef <_ZN4naos3HAL3IDT14InitExceptionsEv+0x2bcf>
  1024b7:	0f b6 05 ad d7 13 00 	movzx  eax,BYTE PTR ds:0x13d7ad
  1024be:	83 e0 f0             	and    eax,0xfffffff0
  1024c1:	0a 44 24 0a          	or     al,BYTE PTR [esp+0xa]
  1024c5:	81 fd 00 08 00 00    	cmp    ebp,0x800
  1024cb:	a2 ad d7 13 00       	mov    ds:0x13d7ad,al
  1024d0:	0f 87 ea 16 00 00    	ja     103bc0 <_ZN4naos3HAL3IDT14InitExceptionsEv+0x2ba0>
  1024d6:	0f b6 05 ad d7 13 00 	movzx  eax,BYTE PTR ds:0x13d7ad
  1024dd:	89 f9                	mov    ecx,edi
  1024df:	83 e1 03             	and    ecx,0x3
  1024e2:	c1 e1 05             	shl    ecx,0x5
  1024e5:	83 e0 9f             	and    eax,0xffffff9f
  1024e8:	09 c8                	or     eax,ecx
  1024ea:	81 fd 00 08 00 00    	cmp    ebp,0x800
  1024f0:	a2 ad d7 13 00       	mov    ds:0x13d7ad,al
  1024f5:	0f 87 96 16 00 00    	ja     103b91 <_ZN4naos3HAL3IDT14InitExceptionsEv+0x2b71>
  1024fb:	0f b6 05 ad d7 13 00 	movzx  eax,BYTE PTR ds:0x13d7ad
  102502:	0f b6 4c 24 0b       	movzx  ecx,BYTE PTR [esp+0xb]
  102507:	83 e0 7f             	and    eax,0x7f
  10250a:	c1 e1 07             	shl    ecx,0x7
  10250d:	09 c8                	or     eax,ecx
  10250f:	81 fd 00 08 00 00    	cmp    ebp,0x800
  102515:	a2 ad d7 13 00       	mov    ds:0x13d7ad,al
  10251a:	0f 87 4a 16 00 00    	ja     103b6a <_ZN4naos3HAL3IDT14InitExceptionsEv+0x2b4a>
  102520:	8d 83 aa d7 13 00    	lea    eax,[ebx+0x13d7aa]
  102526:	80 25 ad d7 13 00 ef 	and    BYTE PTR ds:0x13d7ad,0xef
  10252d:	3d 00 08 00 00       	cmp    eax,0x800
  102532:	0f 87 0e 16 00 00    	ja     103b46 <_ZN4naos3HAL3IDT14InitExceptionsEv+0x2b26>
  102538:	8d 83 b0 d7 13 00    	lea    eax,[ebx+0x13d7b0]
  10253e:	ba 08 00 00 00       	mov    edx,0x8
  102543:	bd c1 85 10 00       	mov    ebp,0x1085c1
  102548:	66 89 15 aa d7 13 00 	mov    WORD PTR ds:0x13d7aa,dx
  10254f:	3d 00 08 00 00       	cmp    eax,0x800
  102554:	0f 87 c8 15 00 00    	ja     103b22 <_ZN4naos3HAL3IDT14InitExceptionsEv+0x2b02>
  10255a:	8d 83 b6 d7 13 00    	lea    eax,[ebx+0x13d7b6]
  102560:	66 89 2d b0 d7 13 00 	mov    WORD PTR ds:0x13d7b0,bp
  102567:	c1 ed 10             	shr    ebp,0x10
  10256a:	3d 00 08 00 00       	cmp    eax,0x800
  10256f:	0f 87 89 15 00 00    	ja     103afe <_ZN4naos3HAL3IDT14InitExceptionsEv+0x2ade>
  102575:	8d 86 b4 d7 13 00    	lea    eax,[esi+0x13d7b4]
  10257b:	66 89 2d b6 d7 13 00 	mov    WORD PTR ds:0x13d7b6,bp
  102582:	3d 00 08 00 00       	cmp    eax,0x800
  102587:	0f 87 4d 15 00 00    	ja     103ada <_ZN4naos3HAL3IDT14InitExceptionsEv+0x2aba>
  10258d:	8d ae b5 d7 13 00    	lea    ebp,[esi+0x13d7b5]
  102593:	c6 05 b4 d7 13 00 00 	mov    BYTE PTR ds:0x13d7b4,0x0
  10259a:	ba b5 d7 13 00       	mov    edx,0x13d7b5
  10259f:	81 fd 00 08 00 00    	cmp    ebp,0x800
  1025a5:	0f 87 08 15 00 00    	ja     103ab3 <_ZN4naos3HAL3IDT14InitExceptionsEv+0x2a93>
  1025ab:	0f b6 05 b5 d7 13 00 	movzx  eax,BYTE PTR ds:0x13d7b5
  1025b2:	83 e0 f0             	and    eax,0xfffffff0
  1025b5:	0a 44 24 0a          	or     al,BYTE PTR [esp+0xa]
  1025b9:	81 fd 00 08 00 00    	cmp    ebp,0x800
  1025bf:	a2 b5 d7 13 00       	mov    ds:0x13d7b5,al
  1025c4:	0f 87 ba 14 00 00    	ja     103a84 <_ZN4naos3HAL3IDT14InitExceptionsEv+0x2a64>
  1025ca:	0f b6 05 b5 d7 13 00 	movzx  eax,BYTE PTR ds:0x13d7b5
  1025d1:	89 f9                	mov    ecx,edi
  1025d3:	83 e1 03             	and    ecx,0x3
  1025d6:	c1 e1 05             	shl    ecx,0x5
  1025d9:	83 e0 9f             	and    eax,0xffffff9f
  1025dc:	09 c8                	or     eax,ecx
  1025de:	81 fd 00 08 00 00    	cmp    ebp,0x800
  1025e4:	a2 b5 d7 13 00       	mov    ds:0x13d7b5,al
  1025e9:	0f 87 66 14 00 00    	ja     103a55 <_ZN4naos3HAL3IDT14InitExceptionsEv+0x2a35>
  1025ef:	0f b6 05 b5 d7 13 00 	movzx  eax,BYTE PTR ds:0x13d7b5
  1025f6:	0f b6 4c 24 0b       	movzx  ecx,BYTE PTR [esp+0xb]
  1025fb:	83 e0 7f             	and    eax,0x7f
  1025fe:	c1 e1 07             	shl    ecx,0x7
  102601:	09 c8                	or     eax,ecx
  102603:	81 fd 00 08 00 00    	cmp    ebp,0x800
  102609:	a2 b5 d7 13 00       	mov    ds:0x13d7b5,al
  10260e:	0f 87 1a 14 00 00    	ja     103a2e <_ZN4naos3HAL3IDT14InitExceptionsEv+0x2a0e>
  102614:	8d 83 b2 d7 13 00    	lea    eax,[ebx+0x13d7b2]
  10261a:	80 25 b5 d7 13 00 ef 	and    BYTE PTR ds:0x13d7b5,0xef
  102621:	3d 00 08 00 00       	cmp    eax,0x800
  102626:	0f 87 de 13 00 00    	ja     103a0a <_ZN4naos3HAL3IDT14InitExceptionsEv+0x29ea>
  10262c:	8d 83 b8 d7 13 00    	lea    eax,[ebx+0x13d7b8]
  102632:	ba 08 00 00 00       	mov    edx,0x8
  102637:	bd cb 85 10 00       	mov    ebp,0x1085cb
  10263c:	66 89 15 b2 d7 13 00 	mov    WORD PTR ds:0x13d7b2,dx
  102643:	3d 00 08 00 00       	cmp    eax,0x800
  102648:	0f 87 98 13 00 00    	ja     1039e6 <_ZN4naos3HAL3IDT14InitExceptionsEv+0x29c6>
  10264e:	8d 83 be d7 13 00    	lea    eax,[ebx+0x13d7be]
  102654:	66 89 2d b8 d7 13 00 	mov    WORD PTR ds:0x13d7b8,bp
  10265b:	c1 ed 10             	shr    ebp,0x10
  10265e:	3d 00 08 00 00       	cmp    eax,0x800
  102663:	0f 87 59 13 00 00    	ja     1039c2 <_ZN4naos3HAL3IDT14InitExceptionsEv+0x29a2>
  102669:	8d 86 bc d7 13 00    	lea    eax,[esi+0x13d7bc]
  10266f:	66 89 2d be d7 13 00 	mov    WORD PTR ds:0x13d7be,bp
  102676:	3d 00 08 00 00       	cmp    eax,0x800
  10267b:	0f 87 1d 13 00 00    	ja     10399e <_ZN4naos3HAL3IDT14InitExceptionsEv+0x297e>
  102681:	8d ae bd d7 13 00    	lea    ebp,[esi+0x13d7bd]
  102687:	c6 05 bc d7 13 00 00 	mov    BYTE PTR ds:0x13d7bc,0x0
  10268e:	ba bd d7 13 00       	mov    edx,0x13d7bd
  102693:	81 fd 00 08 00 00    	cmp    ebp,0x800
  102699:	0f 87 d8 12 00 00    	ja     103977 <_ZN4naos3HAL3IDT14InitExceptionsEv+0x2957>
  10269f:	0f b6 05 bd d7 13 00 	movzx  eax,BYTE PTR ds:0x13d7bd
  1026a6:	83 e0 f0             	and    eax,0xfffffff0
  1026a9:	0a 44 24 0a          	or     al,BYTE PTR [esp+0xa]
  1026ad:	81 fd 00 08 00 00    	cmp    ebp,0x800
  1026b3:	a2 bd d7 13 00       	mov    ds:0x13d7bd,al
  1026b8:	0f 87 8a 12 00 00    	ja     103948 <_ZN4naos3HAL3IDT14InitExceptionsEv+0x2928>
  1026be:	0f b6 05 bd d7 13 00 	movzx  eax,BYTE PTR ds:0x13d7bd
  1026c5:	89 f9                	mov    ecx,edi
  1026c7:	83 e1 03             	and    ecx,0x3
  1026ca:	c1 e1 05             	shl    ecx,0x5
  1026cd:	83 e0 9f             	and    eax,0xffffff9f
  1026d0:	09 c8                	or     eax,ecx
  1026d2:	81 fd 00 08 00 00    	cmp    ebp,0x800
  1026d8:	a2 bd d7 13 00       	mov    ds:0x13d7bd,al
  1026dd:	0f 87 36 12 00 00    	ja     103919 <_ZN4naos3HAL3IDT14InitExceptionsEv+0x28f9>
  1026e3:	0f b6 05 bd d7 13 00 	movzx  eax,BYTE PTR ds:0x13d7bd
  1026ea:	0f b6 4c 24 0b       	movzx  ecx,BYTE PTR [esp+0xb]
  1026ef:	83 e0 7f             	and    eax,0x7f
  1026f2:	c1 e1 07             	shl    ecx,0x7
  1026f5:	09 c8                	or     eax,ecx
  1026f7:	81 fd 00 08 00 00    	cmp    ebp,0x800
  1026fd:	a2 bd d7 13 00       	mov    ds:0x13d7bd,al
  102702:	0f 87 ea 11 00 00    	ja     1038f2 <_ZN4naos3HAL3IDT14InitExceptionsEv+0x28d2>
  102708:	8d 83 ba d7 13 00    	lea    eax,[ebx+0x13d7ba]
  10270e:	80 25 bd d7 13 00 ef 	and    BYTE PTR ds:0x13d7bd,0xef
  102715:	3d 00 08 00 00       	cmp    eax,0x800
  10271a:	0f 87 ae 11 00 00    	ja     1038ce <_ZN4naos3HAL3IDT14InitExceptionsEv+0x28ae>
  102720:	8d 83 c0 d7 13 00    	lea    eax,[ebx+0x13d7c0]
  102726:	ba 08 00 00 00       	mov    edx,0x8
  10272b:	bd d5 85 10 00       	mov    ebp,0x1085d5
  102730:	66 89 15 ba d7 13 00 	mov    WORD PTR ds:0x13d7ba,dx
  102737:	3d 00 08 00 00       	cmp    eax,0x800
  10273c:	0f 87 68 11 00 00    	ja     1038aa <_ZN4naos3HAL3IDT14InitExceptionsEv+0x288a>
  102742:	8d 83 c6 d7 13 00    	lea    eax,[ebx+0x13d7c6]
  102748:	66 89 2d c0 d7 13 00 	mov    WORD PTR ds:0x13d7c0,bp
  10274f:	c1 ed 10             	shr    ebp,0x10
  102752:	3d 00 08 00 00       	cmp    eax,0x800
  102757:	0f 87 29 11 00 00    	ja     103886 <_ZN4naos3HAL3IDT14InitExceptionsEv+0x2866>
  10275d:	8d 86 c4 d7 13 00    	lea    eax,[esi+0x13d7c4]
  102763:	66 89 2d c6 d7 13 00 	mov    WORD PTR ds:0x13d7c6,bp
  10276a:	3d 00 08 00 00       	cmp    eax,0x800
  10276f:	0f 87 ed 10 00 00    	ja     103862 <_ZN4naos3HAL3IDT14InitExceptionsEv+0x2842>
  102775:	8d ae c5 d7 13 00    	lea    ebp,[esi+0x13d7c5]
  10277b:	c6 05 c4 d7 13 00 00 	mov    BYTE PTR ds:0x13d7c4,0x0
  102782:	ba c5 d7 13 00       	mov    edx,0x13d7c5
  102787:	81 fd 00 08 00 00    	cmp    ebp,0x800
  10278d:	0f 87 a8 10 00 00    	ja     10383b <_ZN4naos3HAL3IDT14InitExceptionsEv+0x281b>
  102793:	0f b6 05 c5 d7 13 00 	movzx  eax,BYTE PTR ds:0x13d7c5
  10279a:	83 e0 f0             	and    eax,0xfffffff0
  10279d:	0a 44 24 0a          	or     al,BYTE PTR [esp+0xa]
  1027a1:	81 fd 00 08 00 00    	cmp    ebp,0x800
  1027a7:	a2 c5 d7 13 00       	mov    ds:0x13d7c5,al
  1027ac:	0f 87 5a 10 00 00    	ja     10380c <_ZN4naos3HAL3IDT14InitExceptionsEv+0x27ec>
  1027b2:	0f b6 05 c5 d7 13 00 	movzx  eax,BYTE PTR ds:0x13d7c5
  1027b9:	89 f9                	mov    ecx,edi
  1027bb:	83 e1 03             	and    ecx,0x3
  1027be:	c1 e1 05             	shl    ecx,0x5
  1027c1:	83 e0 9f             	and    eax,0xffffff9f
  1027c4:	09 c8                	or     eax,ecx
  1027c6:	81 fd 00 08 00 00    	cmp    ebp,0x800
  1027cc:	a2 c5 d7 13 00       	mov    ds:0x13d7c5,al
  1027d1:	0f 87 06 10 00 00    	ja     1037dd <_ZN4naos3HAL3IDT14InitExceptionsEv+0x27bd>
  1027d7:	0f b6 05 c5 d7 13 00 	movzx  eax,BYTE PTR ds:0x13d7c5
  1027de:	0f b6 4c 24 0b       	movzx  ecx,BYTE PTR [esp+0xb]
  1027e3:	83 e0 7f             	and    eax,0x7f
  1027e6:	c1 e1 07             	shl    ecx,0x7
  1027e9:	09 c8                	or     eax,ecx
  1027eb:	81 fd 00 08 00 00    	cmp    ebp,0x800
  1027f1:	a2 c5 d7 13 00       	mov    ds:0x13d7c5,al
  1027f6:	0f 87 ba 0f 00 00    	ja     1037b6 <_ZN4naos3HAL3IDT14InitExceptionsEv+0x2796>
  1027fc:	8d 83 c2 d7 13 00    	lea    eax,[ebx+0x13d7c2]
  102802:	80 25 c5 d7 13 00 ef 	and    BYTE PTR ds:0x13d7c5,0xef
  102809:	3d 00 08 00 00       	cmp    eax,0x800
  10280e:	0f 87 7e 0f 00 00    	ja     103792 <_ZN4naos3HAL3IDT14InitExceptionsEv+0x2772>
  102814:	8d 83 c8 d7 13 00    	lea    eax,[ebx+0x13d7c8]
  10281a:	ba 08 00 00 00       	mov    edx,0x8
  10281f:	bd df 85 10 00       	mov    ebp,0x1085df
  102824:	66 89 15 c2 d7 13 00 	mov    WORD PTR ds:0x13d7c2,dx
  10282b:	3d 00 08 00 00       	cmp    eax,0x800
  102830:	0f 87 38 0f 00 00    	ja     10376e <_ZN4naos3HAL3IDT14InitExceptionsEv+0x274e>
  102836:	8d 83 ce d7 13 00    	lea    eax,[ebx+0x13d7ce]
  10283c:	66 89 2d c8 d7 13 00 	mov    WORD PTR ds:0x13d7c8,bp
  102843:	c1 ed 10             	shr    ebp,0x10
  102846:	3d 00 08 00 00       	cmp    eax,0x800
  10284b:	0f 87 f9 0e 00 00    	ja     10374a <_ZN4naos3HAL3IDT14InitExceptionsEv+0x272a>
  102851:	8d 86 cc d7 13 00    	lea    eax,[esi+0x13d7cc]
  102857:	66 89 2d ce d7 13 00 	mov    WORD PTR ds:0x13d7ce,bp
  10285e:	3d 00 08 00 00       	cmp    eax,0x800
  102863:	0f 87 bd 0e 00 00    	ja     103726 <_ZN4naos3HAL3IDT14InitExceptionsEv+0x2706>
  102869:	8d ae cd d7 13 00    	lea    ebp,[esi+0x13d7cd]
  10286f:	c6 05 cc d7 13 00 00 	mov    BYTE PTR ds:0x13d7cc,0x0
  102876:	ba cd d7 13 00       	mov    edx,0x13d7cd
  10287b:	81 fd 00 08 00 00    	cmp    ebp,0x800
  102881:	0f 87 78 0e 00 00    	ja     1036ff <_ZN4naos3HAL3IDT14InitExceptionsEv+0x26df>
  102887:	0f b6 05 cd d7 13 00 	movzx  eax,BYTE PTR ds:0x13d7cd
  10288e:	83 e0 f0             	and    eax,0xfffffff0
  102891:	0a 44 24 0a          	or     al,BYTE PTR [esp+0xa]
  102895:	81 fd 00 08 00 00    	cmp    ebp,0x800
  10289b:	a2 cd d7 13 00       	mov    ds:0x13d7cd,al
  1028a0:	0f 87 2a 0e 00 00    	ja     1036d0 <_ZN4naos3HAL3IDT14InitExceptionsEv+0x26b0>
  1028a6:	0f b6 05 cd d7 13 00 	movzx  eax,BYTE PTR ds:0x13d7cd
  1028ad:	89 f9                	mov    ecx,edi
  1028af:	83 e1 03             	and    ecx,0x3
  1028b2:	c1 e1 05             	shl    ecx,0x5
  1028b5:	83 e0 9f             	and    eax,0xffffff9f
  1028b8:	09 c8                	or     eax,ecx
  1028ba:	81 fd 00 08 00 00    	cmp    ebp,0x800
  1028c0:	a2 cd d7 13 00       	mov    ds:0x13d7cd,al
  1028c5:	0f 87 d6 0d 00 00    	ja     1036a1 <_ZN4naos3HAL3IDT14InitExceptionsEv+0x2681>
  1028cb:	0f b6 05 cd d7 13 00 	movzx  eax,BYTE PTR ds:0x13d7cd
  1028d2:	0f b6 4c 24 0b       	movzx  ecx,BYTE PTR [esp+0xb]
  1028d7:	83 e0 7f             	and    eax,0x7f
  1028da:	c1 e1 07             	shl    ecx,0x7
  1028dd:	09 c8                	or     eax,ecx
  1028df:	81 fd 00 08 00 00    	cmp    ebp,0x800
  1028e5:	a2 cd d7 13 00       	mov    ds:0x13d7cd,al
  1028ea:	0f 87 8a 0d 00 00    	ja     10367a <_ZN4naos3HAL3IDT14InitExceptionsEv+0x265a>
  1028f0:	8d 83 ca d7 13 00    	lea    eax,[ebx+0x13d7ca]
  1028f6:	80 25 cd d7 13 00 ef 	and    BYTE PTR ds:0x13d7cd,0xef
  1028fd:	3d 00 08 00 00       	cmp    eax,0x800
  102902:	0f 87 4e 0d 00 00    	ja     103656 <_ZN4naos3HAL3IDT14InitExceptionsEv+0x2636>
  102908:	8d 83 d0 d7 13 00    	lea    eax,[ebx+0x13d7d0]
  10290e:	ba 08 00 00 00       	mov    edx,0x8
  102913:	bd e9 85 10 00       	mov    ebp,0x1085e9
  102918:	66 89 15 ca d7 13 00 	mov    WORD PTR ds:0x13d7ca,dx
  10291f:	3d 00 08 00 00       	cmp    eax,0x800
  102924:	0f 87 08 0d 00 00    	ja     103632 <_ZN4naos3HAL3IDT14InitExceptionsEv+0x2612>
  10292a:	8d 83 d6 d7 13 00    	lea    eax,[ebx+0x13d7d6]
  102930:	66 89 2d d0 d7 13 00 	mov    WORD PTR ds:0x13d7d0,bp
  102937:	c1 ed 10             	shr    ebp,0x10
  10293a:	3d 00 08 00 00       	cmp    eax,0x800
  10293f:	0f 87 c9 0c 00 00    	ja     10360e <_ZN4naos3HAL3IDT14InitExceptionsEv+0x25ee>
  102945:	8d 86 d4 d7 13 00    	lea    eax,[esi+0x13d7d4]
  10294b:	66 89 2d d6 d7 13 00 	mov    WORD PTR ds:0x13d7d6,bp
  102952:	3d 00 08 00 00       	cmp    eax,0x800
  102957:	0f 87 8d 0c 00 00    	ja     1035ea <_ZN4naos3HAL3IDT14InitExceptionsEv+0x25ca>
  10295d:	8d ae d5 d7 13 00    	lea    ebp,[esi+0x13d7d5]
  102963:	c6 05 d4 d7 13 00 00 	mov    BYTE PTR ds:0x13d7d4,0x0
  10296a:	ba d5 d7 13 00       	mov    edx,0x13d7d5
  10296f:	81 fd 00 08 00 00    	cmp    ebp,0x800
  102975:	0f 87 48 0c 00 00    	ja     1035c3 <_ZN4naos3HAL3IDT14InitExceptionsEv+0x25a3>
  10297b:	0f b6 05 d5 d7 13 00 	movzx  eax,BYTE PTR ds:0x13d7d5
  102982:	83 e0 f0             	and    eax,0xfffffff0
  102985:	0a 44 24 0a          	or     al,BYTE PTR [esp+0xa]
  102989:	81 fd 00 08 00 00    	cmp    ebp,0x800
  10298f:	a2 d5 d7 13 00       	mov    ds:0x13d7d5,al
  102994:	0f 87 fa 0b 00 00    	ja     103594 <_ZN4naos3HAL3IDT14InitExceptionsEv+0x2574>
  10299a:	0f b6 05 d5 d7 13 00 	movzx  eax,BYTE PTR ds:0x13d7d5
  1029a1:	89 f9                	mov    ecx,edi
  1029a3:	83 e1 03             	and    ecx,0x3
  1029a6:	c1 e1 05             	shl    ecx,0x5
  1029a9:	83 e0 9f             	and    eax,0xffffff9f
  1029ac:	09 c8                	or     eax,ecx
  1029ae:	81 fd 00 08 00 00    	cmp    ebp,0x800
  1029b4:	a2 d5 d7 13 00       	mov    ds:0x13d7d5,al
  1029b9:	0f 87 a6 0b 00 00    	ja     103565 <_ZN4naos3HAL3IDT14InitExceptionsEv+0x2545>
  1029bf:	0f b6 05 d5 d7 13 00 	movzx  eax,BYTE PTR ds:0x13d7d5
  1029c6:	0f b6 4c 24 0b       	movzx  ecx,BYTE PTR [esp+0xb]
  1029cb:	83 e0 7f             	and    eax,0x7f
  1029ce:	c1 e1 07             	shl    ecx,0x7
  1029d1:	09 c8                	or     eax,ecx
  1029d3:	81 fd 00 08 00 00    	cmp    ebp,0x800
  1029d9:	a2 d5 d7 13 00       	mov    ds:0x13d7d5,al
  1029de:	0f 87 5a 0b 00 00    	ja     10353e <_ZN4naos3HAL3IDT14InitExceptionsEv+0x251e>
  1029e4:	8d 83 d2 d7 13 00    	lea    eax,[ebx+0x13d7d2]
  1029ea:	80 25 d5 d7 13 00 ef 	and    BYTE PTR ds:0x13d7d5,0xef
  1029f1:	3d 00 08 00 00       	cmp    eax,0x800
  1029f6:	0f 87 1e 0b 00 00    	ja     10351a <_ZN4naos3HAL3IDT14InitExceptionsEv+0x24fa>
  1029fc:	8d 83 d8 d7 13 00    	lea    eax,[ebx+0x13d7d8]
  102a02:	ba 08 00 00 00       	mov    edx,0x8
  102a07:	bd f3 85 10 00       	mov    ebp,0x1085f3
  102a0c:	66 89 15 d2 d7 13 00 	mov    WORD PTR ds:0x13d7d2,dx
  102a13:	3d 00 08 00 00       	cmp    eax,0x800
  102a18:	0f 87 d8 0a 00 00    	ja     1034f6 <_ZN4naos3HAL3IDT14InitExceptionsEv+0x24d6>
  102a1e:	8d 83 de d7 13 00    	lea    eax,[ebx+0x13d7de]
  102a24:	66 89 2d d8 d7 13 00 	mov    WORD PTR ds:0x13d7d8,bp
  102a2b:	c1 ed 10             	shr    ebp,0x10
  102a2e:	3d 00 08 00 00       	cmp    eax,0x800
  102a33:	0f 87 99 0a 00 00    	ja     1034d2 <_ZN4naos3HAL3IDT14InitExceptionsEv+0x24b2>
  102a39:	8d 86 dc d7 13 00    	lea    eax,[esi+0x13d7dc]
  102a3f:	66 89 2d de d7 13 00 	mov    WORD PTR ds:0x13d7de,bp
  102a46:	3d 00 08 00 00       	cmp    eax,0x800
  102a4b:	0f 87 5d 0a 00 00    	ja     1034ae <_ZN4naos3HAL3IDT14InitExceptionsEv+0x248e>
  102a51:	8d ae dd d7 13 00    	lea    ebp,[esi+0x13d7dd]
  102a57:	c6 05 dc d7 13 00 00 	mov    BYTE PTR ds:0x13d7dc,0x0
  102a5e:	ba dd d7 13 00       	mov    edx,0x13d7dd
  102a63:	81 fd 00 08 00 00    	cmp    ebp,0x800
  102a69:	0f 87 18 0a 00 00    	ja     103487 <_ZN4naos3HAL3IDT14InitExceptionsEv+0x2467>
  102a6f:	0f b6 05 dd d7 13 00 	movzx  eax,BYTE PTR ds:0x13d7dd
  102a76:	83 e0 f0             	and    eax,0xfffffff0
  102a79:	0a 44 24 0a          	or     al,BYTE PTR [esp+0xa]
  102a7d:	81 fd 00 08 00 00    	cmp    ebp,0x800
  102a83:	a2 dd d7 13 00       	mov    ds:0x13d7dd,al
  102a88:	0f 87 ca 09 00 00    	ja     103458 <_ZN4naos3HAL3IDT14InitExceptionsEv+0x2438>
  102a8e:	0f b6 05 dd d7 13 00 	movzx  eax,BYTE PTR ds:0x13d7dd
  102a95:	89 f9                	mov    ecx,edi
  102a97:	83 e1 03             	and    ecx,0x3
  102a9a:	c1 e1 05             	shl    ecx,0x5
  102a9d:	83 e0 9f             	and    eax,0xffffff9f
  102aa0:	09 c8                	or     eax,ecx
  102aa2:	81 fd 00 08 00 00    	cmp    ebp,0x800
  102aa8:	a2 dd d7 13 00       	mov    ds:0x13d7dd,al
  102aad:	0f 87 76 09 00 00    	ja     103429 <_ZN4naos3HAL3IDT14InitExceptionsEv+0x2409>
  102ab3:	0f b6 05 dd d7 13 00 	movzx  eax,BYTE PTR ds:0x13d7dd
  102aba:	0f b6 4c 24 0b       	movzx  ecx,BYTE PTR [esp+0xb]
  102abf:	83 e0 7f             	and    eax,0x7f
  102ac2:	c1 e1 07             	shl    ecx,0x7
  102ac5:	09 c8                	or     eax,ecx
  102ac7:	81 fd 00 08 00 00    	cmp    ebp,0x800
  102acd:	a2 dd d7 13 00       	mov    ds:0x13d7dd,al
  102ad2:	0f 87 2a 09 00 00    	ja     103402 <_ZN4naos3HAL3IDT14InitExceptionsEv+0x23e2>
  102ad8:	8d 83 da d7 13 00    	lea    eax,[ebx+0x13d7da]
  102ade:	80 25 dd d7 13 00 ef 	and    BYTE PTR ds:0x13d7dd,0xef
  102ae5:	3d 00 08 00 00       	cmp    eax,0x800
  102aea:	0f 87 ee 08 00 00    	ja     1033de <_ZN4naos3HAL3IDT14InitExceptionsEv+0x23be>
  102af0:	8d 83 e0 d7 13 00    	lea    eax,[ebx+0x13d7e0]
  102af6:	ba 08 00 00 00       	mov    edx,0x8
  102afb:	bd fd 85 10 00       	mov    ebp,0x1085fd
  102b00:	66 89 15 da d7 13 00 	mov    WORD PTR ds:0x13d7da,dx
  102b07:	3d 00 08 00 00       	cmp    eax,0x800
  102b0c:	0f 87 a8 08 00 00    	ja     1033ba <_ZN4naos3HAL3IDT14InitExceptionsEv+0x239a>
  102b12:	8d 83 e6 d7 13 00    	lea    eax,[ebx+0x13d7e6]
  102b18:	66 89 2d e0 d7 13 00 	mov    WORD PTR ds:0x13d7e0,bp
  102b1f:	c1 ed 10             	shr    ebp,0x10
  102b22:	3d 00 08 00 00       	cmp    eax,0x800
  102b27:	0f 87 69 08 00 00    	ja     103396 <_ZN4naos3HAL3IDT14InitExceptionsEv+0x2376>
  102b2d:	8d 86 e4 d7 13 00    	lea    eax,[esi+0x13d7e4]
  102b33:	66 89 2d e6 d7 13 00 	mov    WORD PTR ds:0x13d7e6,bp
  102b3a:	3d 00 08 00 00       	cmp    eax,0x800
  102b3f:	0f 87 2d 08 00 00    	ja     103372 <_ZN4naos3HAL3IDT14InitExceptionsEv+0x2352>
  102b45:	8d ae e5 d7 13 00    	lea    ebp,[esi+0x13d7e5]
  102b4b:	c6 05 e4 d7 13 00 00 	mov    BYTE PTR ds:0x13d7e4,0x0
  102b52:	ba e5 d7 13 00       	mov    edx,0x13d7e5
  102b57:	81 fd 00 08 00 00    	cmp    ebp,0x800
  102b5d:	0f 87 e8 07 00 00    	ja     10334b <_ZN4naos3HAL3IDT14InitExceptionsEv+0x232b>
  102b63:	0f b6 05 e5 d7 13 00 	movzx  eax,BYTE PTR ds:0x13d7e5
  102b6a:	83 e0 f0             	and    eax,0xfffffff0
  102b6d:	0a 44 24 0a          	or     al,BYTE PTR [esp+0xa]
  102b71:	81 fd 00 08 00 00    	cmp    ebp,0x800
  102b77:	a2 e5 d7 13 00       	mov    ds:0x13d7e5,al
  102b7c:	0f 87 9a 07 00 00    	ja     10331c <_ZN4naos3HAL3IDT14InitExceptionsEv+0x22fc>
  102b82:	0f b6 05 e5 d7 13 00 	movzx  eax,BYTE PTR ds:0x13d7e5
  102b89:	89 f9                	mov    ecx,edi
  102b8b:	83 e1 03             	and    ecx,0x3
  102b8e:	c1 e1 05             	shl    ecx,0x5
  102b91:	83 e0 9f             	and    eax,0xffffff9f
  102b94:	09 c8                	or     eax,ecx
  102b96:	81 fd 00 08 00 00    	cmp    ebp,0x800
  102b9c:	a2 e5 d7 13 00       	mov    ds:0x13d7e5,al
  102ba1:	0f 87 46 07 00 00    	ja     1032ed <_ZN4naos3HAL3IDT14InitExceptionsEv+0x22cd>
  102ba7:	0f b6 05 e5 d7 13 00 	movzx  eax,BYTE PTR ds:0x13d7e5
  102bae:	0f b6 4c 24 0b       	movzx  ecx,BYTE PTR [esp+0xb]
  102bb3:	83 e0 7f             	and    eax,0x7f
  102bb6:	c1 e1 07             	shl    ecx,0x7
  102bb9:	09 c8                	or     eax,ecx
  102bbb:	81 fd 00 08 00 00    	cmp    ebp,0x800
  102bc1:	a2 e5 d7 13 00       	mov    ds:0x13d7e5,al
  102bc6:	0f 87 fa 06 00 00    	ja     1032c6 <_ZN4naos3HAL3IDT14InitExceptionsEv+0x22a6>
  102bcc:	8d 83 e2 d7 13 00    	lea    eax,[ebx+0x13d7e2]
  102bd2:	80 25 e5 d7 13 00 ef 	and    BYTE PTR ds:0x13d7e5,0xef
  102bd9:	3d 00 08 00 00       	cmp    eax,0x800
  102bde:	0f 87 be 06 00 00    	ja     1032a2 <_ZN4naos3HAL3IDT14InitExceptionsEv+0x2282>
  102be4:	8d 83 e8 d7 13 00    	lea    eax,[ebx+0x13d7e8]
  102bea:	ba 08 00 00 00       	mov    edx,0x8
  102bef:	bd 07 86 10 00       	mov    ebp,0x108607
  102bf4:	66 89 15 e2 d7 13 00 	mov    WORD PTR ds:0x13d7e2,dx
  102bfb:	3d 00 08 00 00       	cmp    eax,0x800
  102c00:	0f 87 78 06 00 00    	ja     10327e <_ZN4naos3HAL3IDT14InitExceptionsEv+0x225e>
  102c06:	8d 83 ee d7 13 00    	lea    eax,[ebx+0x13d7ee]
  102c0c:	66 89 2d e8 d7 13 00 	mov    WORD PTR ds:0x13d7e8,bp
  102c13:	c1 ed 10             	shr    ebp,0x10
  102c16:	3d 00 08 00 00       	cmp    eax,0x800
  102c1b:	0f 87 39 06 00 00    	ja     10325a <_ZN4naos3HAL3IDT14InitExceptionsEv+0x223a>
  102c21:	8d 86 ec d7 13 00    	lea    eax,[esi+0x13d7ec]
  102c27:	66 89 2d ee d7 13 00 	mov    WORD PTR ds:0x13d7ee,bp
  102c2e:	3d 00 08 00 00       	cmp    eax,0x800
  102c33:	0f 87 fd 05 00 00    	ja     103236 <_ZN4naos3HAL3IDT14InitExceptionsEv+0x2216>
  102c39:	8d ae ed d7 13 00    	lea    ebp,[esi+0x13d7ed]
  102c3f:	c6 05 ec d7 13 00 00 	mov    BYTE PTR ds:0x13d7ec,0x0
  102c46:	ba ed d7 13 00       	mov    edx,0x13d7ed
  102c4b:	81 fd 00 08 00 00    	cmp    ebp,0x800
  102c51:	0f 87 b8 05 00 00    	ja     10320f <_ZN4naos3HAL3IDT14InitExceptionsEv+0x21ef>
  102c57:	0f b6 05 ed d7 13 00 	movzx  eax,BYTE PTR ds:0x13d7ed
  102c5e:	83 e0 f0             	and    eax,0xfffffff0
  102c61:	0a 44 24 0a          	or     al,BYTE PTR [esp+0xa]
  102c65:	81 fd 00 08 00 00    	cmp    ebp,0x800
  102c6b:	a2 ed d7 13 00       	mov    ds:0x13d7ed,al
  102c70:	0f 87 6a 05 00 00    	ja     1031e0 <_ZN4naos3HAL3IDT14InitExceptionsEv+0x21c0>
  102c76:	0f b6 05 ed d7 13 00 	movzx  eax,BYTE PTR ds:0x13d7ed
  102c7d:	89 f9                	mov    ecx,edi
  102c7f:	83 e1 03             	and    ecx,0x3
  102c82:	c1 e1 05             	shl    ecx,0x5
  102c85:	83 e0 9f             	and    eax,0xffffff9f
  102c88:	09 c8                	or     eax,ecx
  102c8a:	81 fd 00 08 00 00    	cmp    ebp,0x800
  102c90:	a2 ed d7 13 00       	mov    ds:0x13d7ed,al
  102c95:	0f 87 16 05 00 00    	ja     1031b1 <_ZN4naos3HAL3IDT14InitExceptionsEv+0x2191>
  102c9b:	0f b6 05 ed d7 13 00 	movzx  eax,BYTE PTR ds:0x13d7ed
  102ca2:	0f b6 4c 24 0b       	movzx  ecx,BYTE PTR [esp+0xb]
  102ca7:	83 e0 7f             	and    eax,0x7f
  102caa:	c1 e1 07             	shl    ecx,0x7
  102cad:	09 c8                	or     eax,ecx
  102caf:	81 fd 00 08 00 00    	cmp    ebp,0x800
  102cb5:	a2 ed d7 13 00       	mov    ds:0x13d7ed,al
  102cba:	0f 87 ca 04 00 00    	ja     10318a <_ZN4naos3HAL3IDT14InitExceptionsEv+0x216a>
  102cc0:	8d 83 ea d7 13 00    	lea    eax,[ebx+0x13d7ea]
  102cc6:	80 25 ed d7 13 00 ef 	and    BYTE PTR ds:0x13d7ed,0xef
  102ccd:	3d 00 08 00 00       	cmp    eax,0x800
  102cd2:	0f 87 8e 04 00 00    	ja     103166 <_ZN4naos3HAL3IDT14InitExceptionsEv+0x2146>
  102cd8:	8d 83 f0 d7 13 00    	lea    eax,[ebx+0x13d7f0]
  102cde:	ba 08 00 00 00       	mov    edx,0x8
  102ce3:	bd 11 86 10 00       	mov    ebp,0x108611
  102ce8:	66 89 15 ea d7 13 00 	mov    WORD PTR ds:0x13d7ea,dx
  102cef:	3d 00 08 00 00       	cmp    eax,0x800
  102cf4:	0f 87 48 04 00 00    	ja     103142 <_ZN4naos3HAL3IDT14InitExceptionsEv+0x2122>
  102cfa:	8d 83 f6 d7 13 00    	lea    eax,[ebx+0x13d7f6]
  102d00:	66 89 2d f0 d7 13 00 	mov    WORD PTR ds:0x13d7f0,bp
  102d07:	c1 ed 10             	shr    ebp,0x10
  102d0a:	3d 00 08 00 00       	cmp    eax,0x800
  102d0f:	0f 87 09 04 00 00    	ja     10311e <_ZN4naos3HAL3IDT14InitExceptionsEv+0x20fe>
  102d15:	8d 86 f4 d7 13 00    	lea    eax,[esi+0x13d7f4]
  102d1b:	66 89 2d f6 d7 13 00 	mov    WORD PTR ds:0x13d7f6,bp
  102d22:	3d 00 08 00 00       	cmp    eax,0x800
  102d27:	0f 87 cd 03 00 00    	ja     1030fa <_ZN4naos3HAL3IDT14InitExceptionsEv+0x20da>
  102d2d:	8d ae f5 d7 13 00    	lea    ebp,[esi+0x13d7f5]
  102d33:	c6 05 f4 d7 13 00 00 	mov    BYTE PTR ds:0x13d7f4,0x0
  102d3a:	ba f5 d7 13 00       	mov    edx,0x13d7f5
  102d3f:	81 fd 00 08 00 00    	cmp    ebp,0x800
  102d45:	0f 87 88 03 00 00    	ja     1030d3 <_ZN4naos3HAL3IDT14InitExceptionsEv+0x20b3>
  102d4b:	0f b6 05 f5 d7 13 00 	movzx  eax,BYTE PTR ds:0x13d7f5
  102d52:	83 e0 f0             	and    eax,0xfffffff0
  102d55:	0a 44 24 0a          	or     al,BYTE PTR [esp+0xa]
  102d59:	81 fd 00 08 00 00    	cmp    ebp,0x800
  102d5f:	a2 f5 d7 13 00       	mov    ds:0x13d7f5,al
  102d64:	0f 87 3a 03 00 00    	ja     1030a4 <_ZN4naos3HAL3IDT14InitExceptionsEv+0x2084>
  102d6a:	0f b6 05 f5 d7 13 00 	movzx  eax,BYTE PTR ds:0x13d7f5
  102d71:	89 f9                	mov    ecx,edi
  102d73:	83 e1 03             	and    ecx,0x3
  102d76:	c1 e1 05             	shl    ecx,0x5
  102d79:	83 e0 9f             	and    eax,0xffffff9f
  102d7c:	09 c8                	or     eax,ecx
  102d7e:	81 fd 00 08 00 00    	cmp    ebp,0x800
  102d84:	a2 f5 d7 13 00       	mov    ds:0x13d7f5,al
  102d89:	0f 87 e6 02 00 00    	ja     103075 <_ZN4naos3HAL3IDT14InitExceptionsEv+0x2055>
  102d8f:	0f b6 05 f5 d7 13 00 	movzx  eax,BYTE PTR ds:0x13d7f5
  102d96:	0f b6 4c 24 0b       	movzx  ecx,BYTE PTR [esp+0xb]
  102d9b:	83 e0 7f             	and    eax,0x7f
  102d9e:	c1 e1 07             	shl    ecx,0x7
  102da1:	09 c8                	or     eax,ecx
  102da3:	81 fd 00 08 00 00    	cmp    ebp,0x800
  102da9:	a2 f5 d7 13 00       	mov    ds:0x13d7f5,al
  102dae:	0f 87 9a 02 00 00    	ja     10304e <_ZN4naos3HAL3IDT14InitExceptionsEv+0x202e>
  102db4:	8d 83 f2 d7 13 00    	lea    eax,[ebx+0x13d7f2]
  102dba:	80 25 f5 d7 13 00 ef 	and    BYTE PTR ds:0x13d7f5,0xef
  102dc1:	3d 00 08 00 00       	cmp    eax,0x800
  102dc6:	0f 87 5e 02 00 00    	ja     10302a <_ZN4naos3HAL3IDT14InitExceptionsEv+0x200a>
  102dcc:	b8 08 00 00 00       	mov    eax,0x8
  102dd1:	bd 1b 86 10 00       	mov    ebp,0x10861b
  102dd6:	66 a3 f2 d7 13 00    	mov    ds:0x13d7f2,ax
  102ddc:	8d 83 f8 d7 13 00    	lea    eax,[ebx+0x13d7f8]
  102de2:	3d 00 08 00 00       	cmp    eax,0x800
  102de7:	0f 87 19 02 00 00    	ja     103006 <_ZN4naos3HAL3IDT14InitExceptionsEv+0x1fe6>
  102ded:	8d 83 fe d7 13 00    	lea    eax,[ebx+0x13d7fe]
  102df3:	66 89 2d f8 d7 13 00 	mov    WORD PTR ds:0x13d7f8,bp
  102dfa:	c1 ed 10             	shr    ebp,0x10
  102dfd:	3d 00 08 00 00       	cmp    eax,0x800
  102e02:	0f 87 da 01 00 00    	ja     102fe2 <_ZN4naos3HAL3IDT14InitExceptionsEv+0x1fc2>
  102e08:	8d 86 fc d7 13 00    	lea    eax,[esi+0x13d7fc]
  102e0e:	66 89 2d fe d7 13 00 	mov    WORD PTR ds:0x13d7fe,bp
  102e15:	3d 00 08 00 00       	cmp    eax,0x800
  102e1a:	0f 87 9e 01 00 00    	ja     102fbe <_ZN4naos3HAL3IDT14InitExceptionsEv+0x1f9e>
  102e20:	81 c6 fd d7 13 00    	add    esi,0x13d7fd
  102e26:	c6 05 fc d7 13 00 00 	mov    BYTE PTR ds:0x13d7fc,0x0
  102e2d:	bd fd d7 13 00       	mov    ebp,0x13d7fd
  102e32:	81 fe 00 08 00 00    	cmp    esi,0x800
  102e38:	0f 87 61 01 00 00    	ja     102f9f <_ZN4naos3HAL3IDT14InitExceptionsEv+0x1f7f>
  102e3e:	0f b6 05 fd d7 13 00 	movzx  eax,BYTE PTR ds:0x13d7fd
  102e45:	83 e0 f0             	and    eax,0xfffffff0
  102e48:	0a 44 24 0a          	or     al,BYTE PTR [esp+0xa]
  102e4c:	81 fe 00 08 00 00    	cmp    esi,0x800
  102e52:	a2 fd d7 13 00       	mov    ds:0x13d7fd,al
  102e57:	0f 87 1b 01 00 00    	ja     102f78 <_ZN4naos3HAL3IDT14InitExceptionsEv+0x1f58>
  102e5d:	0f b6 05 fd d7 13 00 	movzx  eax,BYTE PTR ds:0x13d7fd
  102e64:	83 e7 03             	and    edi,0x3
  102e67:	c1 e7 05             	shl    edi,0x5
  102e6a:	83 e0 9f             	and    eax,0xffffff9f
  102e6d:	09 f8                	or     eax,edi
  102e6f:	81 fe 00 08 00 00    	cmp    esi,0x800
  102e75:	a2 fd d7 13 00       	mov    ds:0x13d7fd,al
  102e7a:	0f 87 d1 00 00 00    	ja     102f51 <_ZN4naos3HAL3IDT14InitExceptionsEv+0x1f31>
  102e80:	0f b6 15 fd d7 13 00 	movzx  edx,BYTE PTR ds:0x13d7fd
  102e87:	0f b6 44 24 0b       	movzx  eax,BYTE PTR [esp+0xb]
  102e8c:	83 e2 7f             	and    edx,0x7f
  102e8f:	c1 e0 07             	shl    eax,0x7
  102e92:	09 d0                	or     eax,edx
  102e94:	81 fe 00 08 00 00    	cmp    esi,0x800
  102e9a:	a2 fd d7 13 00       	mov    ds:0x13d7fd,al
  102e9f:	0f 87 85 00 00 00    	ja     102f2a <_ZN4naos3HAL3IDT14InitExceptionsEv+0x1f0a>
  102ea5:	81 c3 fa d7 13 00    	add    ebx,0x13d7fa
  102eab:	80 25 fd d7 13 00 ef 	and    BYTE PTR ds:0x13d7fd,0xef
  102eb2:	81 fb 00 08 00 00    	cmp    ebx,0x800
  102eb8:	77 52                	ja     102f0c <_ZN4naos3HAL3IDT14InitExceptionsEv+0x1eec>
  102eba:	83 ec 08             	sub    esp,0x8
  102ebd:	b8 08 00 00 00       	mov    eax,0x8
  102ec2:	68 7b 00 11 00       	push   0x11007b
  102ec7:	68 04 5f 11 00       	push   0x115f04
  102ecc:	66 a3 fa d7 13 00    	mov    ds:0x13d7fa,ax
  102ed2:	e8 49 9e 00 00       	call   10cd20 <printf>
  102ed7:	83 c4 2c             	add    esp,0x2c
  102eda:	5b                   	pop    ebx
  102edb:	5e                   	pop    esi
  102edc:	5f                   	pop    edi
  102edd:	5d                   	pop    ebp
  102ede:	c3                   	ret    
  102edf:	81 c2 06 d7 13 00    	add    edx,0x13d706
  102ee5:	0f 82 88 e1 ff ff    	jb     101073 <_ZN4naos3HAL3IDT14InitExceptionsEv+0x53>
  102eeb:	89 44 24 0c          	mov    DWORD PTR [esp+0xc],eax
  102eef:	50                   	push   eax
  102ef0:	50                   	push   eax
  102ef1:	68 06 d7 13 00       	push   0x13d706
  102ef6:	68 90 9b 11 00       	push   0x119b90
  102efb:	e8 30 c6 00 00       	call   10f530 <__ubsan_handle_type_mismatch>
  102f00:	83 c4 10             	add    esp,0x10
  102f03:	8b 44 24 0c          	mov    eax,DWORD PTR [esp+0xc]
  102f07:	e9 67 e1 ff ff       	jmp    101073 <_ZN4naos3HAL3IDT14InitExceptionsEv+0x53>
  102f0c:	81 c3 fa d7 13 00    	add    ebx,0x13d7fa
  102f12:	72 a6                	jb     102eba <_ZN4naos3HAL3IDT14InitExceptionsEv+0x1e9a>
  102f14:	52                   	push   edx
  102f15:	52                   	push   edx
  102f16:	68 fa d7 13 00       	push   0x13d7fa
  102f1b:	68 9c 83 11 00       	push   0x11839c
  102f20:	e8 0b c6 00 00       	call   10f530 <__ubsan_handle_type_mismatch>
  102f25:	83 c4 10             	add    esp,0x10
  102f28:	eb 90                	jmp    102eba <_ZN4naos3HAL3IDT14InitExceptionsEv+0x1e9a>
  102f2a:	81 c6 fd d7 13 00    	add    esi,0x13d7fd
  102f30:	39 f5                	cmp    ebp,esi
  102f32:	0f 87 6d ff ff ff    	ja     102ea5 <_ZN4naos3HAL3IDT14InitExceptionsEv+0x1e85>
  102f38:	51                   	push   ecx
  102f39:	51                   	push   ecx
  102f3a:	68 fd d7 13 00       	push   0x13d7fd
  102f3f:	68 b4 83 11 00       	push   0x1183b4
  102f44:	e8 e7 c5 00 00       	call   10f530 <__ubsan_handle_type_mismatch>
  102f49:	83 c4 10             	add    esp,0x10
  102f4c:	e9 54 ff ff ff       	jmp    102ea5 <_ZN4naos3HAL3IDT14InitExceptionsEv+0x1e85>
  102f51:	8d 86 fd d7 13 00    	lea    eax,[esi+0x13d7fd]
  102f57:	39 c5                	cmp    ebp,eax
  102f59:	0f 87 21 ff ff ff    	ja     102e80 <_ZN4naos3HAL3IDT14InitExceptionsEv+0x1e60>
  102f5f:	57                   	push   edi
  102f60:	57                   	push   edi
  102f61:	68 fd d7 13 00       	push   0x13d7fd
  102f66:	68 cc 83 11 00       	push   0x1183cc
  102f6b:	e8 c0 c5 00 00       	call   10f530 <__ubsan_handle_type_mismatch>
  102f70:	83 c4 10             	add    esp,0x10
  102f73:	e9 08 ff ff ff       	jmp    102e80 <_ZN4naos3HAL3IDT14InitExceptionsEv+0x1e60>
  102f78:	8d 86 fd d7 13 00    	lea    eax,[esi+0x13d7fd]
  102f7e:	39 c5                	cmp    ebp,eax
  102f80:	0f 87 d7 fe ff ff    	ja     102e5d <_ZN4naos3HAL3IDT14InitExceptionsEv+0x1e3d>
  102f86:	50                   	push   eax
  102f87:	50                   	push   eax
  102f88:	68 fd d7 13 00       	push   0x13d7fd
  102f8d:	68 e4 83 11 00       	push   0x1183e4
  102f92:	e8 99 c5 00 00       	call   10f530 <__ubsan_handle_type_mismatch>
  102f97:	83 c4 10             	add    esp,0x10
  102f9a:	e9 be fe ff ff       	jmp    102e5d <_ZN4naos3HAL3IDT14InitExceptionsEv+0x1e3d>
  102f9f:	89 f0                	mov    eax,esi
  102fa1:	01 e8                	add    eax,ebp
  102fa3:	0f 82 95 fe ff ff    	jb     102e3e <_ZN4naos3HAL3IDT14InitExceptionsEv+0x1e1e>
  102fa9:	50                   	push   eax
  102faa:	50                   	push   eax
  102fab:	55                   	push   ebp
  102fac:	68 fc 83 11 00       	push   0x1183fc
  102fb1:	e8 7a c5 00 00       	call   10f530 <__ubsan_handle_type_mismatch>
  102fb6:	83 c4 10             	add    esp,0x10
  102fb9:	e9 80 fe ff ff       	jmp    102e3e <_ZN4naos3HAL3IDT14InitExceptionsEv+0x1e1e>
  102fbe:	05 fc d7 13 00       	add    eax,0x13d7fc
  102fc3:	0f 82 57 fe ff ff    	jb     102e20 <_ZN4naos3HAL3IDT14InitExceptionsEv+0x1e00>
  102fc9:	50                   	push   eax
  102fca:	50                   	push   eax
  102fcb:	68 fc d7 13 00       	push   0x13d7fc
  102fd0:	68 14 84 11 00       	push   0x118414
  102fd5:	e8 56 c5 00 00       	call   10f530 <__ubsan_handle_type_mismatch>
  102fda:	83 c4 10             	add    esp,0x10
  102fdd:	e9 3e fe ff ff       	jmp    102e20 <_ZN4naos3HAL3IDT14InitExceptionsEv+0x1e00>
  102fe2:	05 fe d7 13 00       	add    eax,0x13d7fe
  102fe7:	0f 82 1b fe ff ff    	jb     102e08 <_ZN4naos3HAL3IDT14InitExceptionsEv+0x1de8>
  102fed:	50                   	push   eax
  102fee:	50                   	push   eax
  102fef:	68 fe d7 13 00       	push   0x13d7fe
  102ff4:	68 2c 84 11 00       	push   0x11842c
  102ff9:	e8 32 c5 00 00       	call   10f530 <__ubsan_handle_type_mismatch>
  102ffe:	83 c4 10             	add    esp,0x10
  103001:	e9 02 fe ff ff       	jmp    102e08 <_ZN4naos3HAL3IDT14InitExceptionsEv+0x1de8>
  103006:	05 f8 d7 13 00       	add    eax,0x13d7f8
  10300b:	0f 82 dc fd ff ff    	jb     102ded <_ZN4naos3HAL3IDT14InitExceptionsEv+0x1dcd>
  103011:	50                   	push   eax
  103012:	50                   	push   eax
  103013:	68 f8 d7 13 00       	push   0x13d7f8
  103018:	68 44 84 11 00       	push   0x118444
  10301d:	e8 0e c5 00 00       	call   10f530 <__ubsan_handle_type_mismatch>
  103022:	83 c4 10             	add    esp,0x10
  103025:	e9 c3 fd ff ff       	jmp    102ded <_ZN4naos3HAL3IDT14InitExceptionsEv+0x1dcd>
  10302a:	05 f2 d7 13 00       	add    eax,0x13d7f2
  10302f:	0f 82 97 fd ff ff    	jb     102dcc <_ZN4naos3HAL3IDT14InitExceptionsEv+0x1dac>
  103035:	52                   	push   edx
  103036:	52                   	push   edx
  103037:	68 f2 d7 13 00       	push   0x13d7f2
  10303c:	68 5c 84 11 00       	push   0x11845c
  103041:	e8 ea c4 00 00       	call   10f530 <__ubsan_handle_type_mismatch>
  103046:	83 c4 10             	add    esp,0x10
  103049:	e9 7e fd ff ff       	jmp    102dcc <_ZN4naos3HAL3IDT14InitExceptionsEv+0x1dac>
  10304e:	81 c5 f5 d7 13 00    	add    ebp,0x13d7f5
  103054:	39 ea                	cmp    edx,ebp
  103056:	0f 87 58 fd ff ff    	ja     102db4 <_ZN4naos3HAL3IDT14InitExceptionsEv+0x1d94>
  10305c:	51                   	push   ecx
  10305d:	51                   	push   ecx
  10305e:	68 f5 d7 13 00       	push   0x13d7f5
  103063:	68 74 84 11 00       	push   0x118474
  103068:	e8 c3 c4 00 00       	call   10f530 <__ubsan_handle_type_mismatch>
  10306d:	83 c4 10             	add    esp,0x10
  103070:	e9 3f fd ff ff       	jmp    102db4 <_ZN4naos3HAL3IDT14InitExceptionsEv+0x1d94>
  103075:	8d 85 f5 d7 13 00    	lea    eax,[ebp+0x13d7f5]
  10307b:	39 c2                	cmp    edx,eax
  10307d:	0f 87 0c fd ff ff    	ja     102d8f <_ZN4naos3HAL3IDT14InitExceptionsEv+0x1d6f>
  103083:	89 54 24 0c          	mov    DWORD PTR [esp+0xc],edx
  103087:	50                   	push   eax
  103088:	50                   	push   eax
  103089:	68 f5 d7 13 00       	push   0x13d7f5
  10308e:	68 8c 84 11 00       	push   0x11848c
  103093:	e8 98 c4 00 00       	call   10f530 <__ubsan_handle_type_mismatch>
  103098:	83 c4 10             	add    esp,0x10
  10309b:	8b 54 24 0c          	mov    edx,DWORD PTR [esp+0xc]
  10309f:	e9 eb fc ff ff       	jmp    102d8f <_ZN4naos3HAL3IDT14InitExceptionsEv+0x1d6f>
  1030a4:	8d 85 f5 d7 13 00    	lea    eax,[ebp+0x13d7f5]
  1030aa:	39 c2                	cmp    edx,eax
  1030ac:	0f 87 b8 fc ff ff    	ja     102d6a <_ZN4naos3HAL3IDT14InitExceptionsEv+0x1d4a>
  1030b2:	89 54 24 0c          	mov    DWORD PTR [esp+0xc],edx
  1030b6:	50                   	push   eax
  1030b7:	50                   	push   eax
  1030b8:	68 f5 d7 13 00       	push   0x13d7f5
  1030bd:	68 a4 84 11 00       	push   0x1184a4
  1030c2:	e8 69 c4 00 00       	call   10f530 <__ubsan_handle_type_mismatch>
  1030c7:	83 c4 10             	add    esp,0x10
  1030ca:	8b 54 24 0c          	mov    edx,DWORD PTR [esp+0xc]
  1030ce:	e9 97 fc ff ff       	jmp    102d6a <_ZN4naos3HAL3IDT14InitExceptionsEv+0x1d4a>
  1030d3:	89 e8                	mov    eax,ebp
  1030d5:	01 d0                	add    eax,edx
  1030d7:	0f 82 6e fc ff ff    	jb     102d4b <_ZN4naos3HAL3IDT14InitExceptionsEv+0x1d2b>
  1030dd:	89 54 24 0c          	mov    DWORD PTR [esp+0xc],edx
  1030e1:	50                   	push   eax
  1030e2:	50                   	push   eax
  1030e3:	52                   	push   edx
  1030e4:	68 bc 84 11 00       	push   0x1184bc
  1030e9:	e8 42 c4 00 00       	call   10f530 <__ubsan_handle_type_mismatch>
  1030ee:	83 c4 10             	add    esp,0x10
  1030f1:	8b 54 24 0c          	mov    edx,DWORD PTR [esp+0xc]
  1030f5:	e9 51 fc ff ff       	jmp    102d4b <_ZN4naos3HAL3IDT14InitExceptionsEv+0x1d2b>
  1030fa:	05 f4 d7 13 00       	add    eax,0x13d7f4
  1030ff:	0f 82 28 fc ff ff    	jb     102d2d <_ZN4naos3HAL3IDT14InitExceptionsEv+0x1d0d>
  103105:	50                   	push   eax
  103106:	50                   	push   eax
  103107:	68 f4 d7 13 00       	push   0x13d7f4
  10310c:	68 d4 84 11 00       	push   0x1184d4
  103111:	e8 1a c4 00 00       	call   10f530 <__ubsan_handle_type_mismatch>
  103116:	83 c4 10             	add    esp,0x10
  103119:	e9 0f fc ff ff       	jmp    102d2d <_ZN4naos3HAL3IDT14InitExceptionsEv+0x1d0d>
  10311e:	05 f6 d7 13 00       	add    eax,0x13d7f6
  103123:	0f 82 ec fb ff ff    	jb     102d15 <_ZN4naos3HAL3IDT14InitExceptionsEv+0x1cf5>
  103129:	50                   	push   eax
  10312a:	50                   	push   eax
  10312b:	68 f6 d7 13 00       	push   0x13d7f6
  103130:	68 ec 84 11 00       	push   0x1184ec
  103135:	e8 f6 c3 00 00       	call   10f530 <__ubsan_handle_type_mismatch>
  10313a:	83 c4 10             	add    esp,0x10
  10313d:	e9 d3 fb ff ff       	jmp    102d15 <_ZN4naos3HAL3IDT14InitExceptionsEv+0x1cf5>
  103142:	05 f0 d7 13 00       	add    eax,0x13d7f0
  103147:	0f 82 ad fb ff ff    	jb     102cfa <_ZN4naos3HAL3IDT14InitExceptionsEv+0x1cda>
  10314d:	50                   	push   eax
  10314e:	50                   	push   eax
  10314f:	68 f0 d7 13 00       	push   0x13d7f0
  103154:	68 04 85 11 00       	push   0x118504
  103159:	e8 d2 c3 00 00       	call   10f530 <__ubsan_handle_type_mismatch>
  10315e:	83 c4 10             	add    esp,0x10
  103161:	e9 94 fb ff ff       	jmp    102cfa <_ZN4naos3HAL3IDT14InitExceptionsEv+0x1cda>
  103166:	05 ea d7 13 00       	add    eax,0x13d7ea
  10316b:	0f 82 67 fb ff ff    	jb     102cd8 <_ZN4naos3HAL3IDT14InitExceptionsEv+0x1cb8>
  103171:	51                   	push   ecx
  103172:	51                   	push   ecx
  103173:	68 ea d7 13 00       	push   0x13d7ea
  103178:	68 1c 85 11 00       	push   0x11851c
  10317d:	e8 ae c3 00 00       	call   10f530 <__ubsan_handle_type_mismatch>
  103182:	83 c4 10             	add    esp,0x10
  103185:	e9 4e fb ff ff       	jmp    102cd8 <_ZN4naos3HAL3IDT14InitExceptionsEv+0x1cb8>
  10318a:	81 c5 ed d7 13 00    	add    ebp,0x13d7ed
  103190:	39 ea                	cmp    edx,ebp
  103192:	0f 87 28 fb ff ff    	ja     102cc0 <_ZN4naos3HAL3IDT14InitExceptionsEv+0x1ca0>
  103198:	55                   	push   ebp
  103199:	55                   	push   ebp
  10319a:	68 ed d7 13 00       	push   0x13d7ed
  10319f:	68 34 85 11 00       	push   0x118534
  1031a4:	e8 87 c3 00 00       	call   10f530 <__ubsan_handle_type_mismatch>
  1031a9:	83 c4 10             	add    esp,0x10
  1031ac:	e9 0f fb ff ff       	jmp    102cc0 <_ZN4naos3HAL3IDT14InitExceptionsEv+0x1ca0>
  1031b1:	8d 85 ed d7 13 00    	lea    eax,[ebp+0x13d7ed]
  1031b7:	39 c2                	cmp    edx,eax
  1031b9:	0f 87 dc fa ff ff    	ja     102c9b <_ZN4naos3HAL3IDT14InitExceptionsEv+0x1c7b>
  1031bf:	89 54 24 0c          	mov    DWORD PTR [esp+0xc],edx
  1031c3:	50                   	push   eax
  1031c4:	50                   	push   eax
  1031c5:	68 ed d7 13 00       	push   0x13d7ed
  1031ca:	68 4c 85 11 00       	push   0x11854c
  1031cf:	e8 5c c3 00 00       	call   10f530 <__ubsan_handle_type_mismatch>
  1031d4:	83 c4 10             	add    esp,0x10
  1031d7:	8b 54 24 0c          	mov    edx,DWORD PTR [esp+0xc]
  1031db:	e9 bb fa ff ff       	jmp    102c9b <_ZN4naos3HAL3IDT14InitExceptionsEv+0x1c7b>
  1031e0:	8d 85 ed d7 13 00    	lea    eax,[ebp+0x13d7ed]
  1031e6:	39 c2                	cmp    edx,eax
  1031e8:	0f 87 88 fa ff ff    	ja     102c76 <_ZN4naos3HAL3IDT14InitExceptionsEv+0x1c56>
  1031ee:	89 54 24 0c          	mov    DWORD PTR [esp+0xc],edx
  1031f2:	50                   	push   eax
  1031f3:	50                   	push   eax
  1031f4:	68 ed d7 13 00       	push   0x13d7ed
  1031f9:	68 64 85 11 00       	push   0x118564
  1031fe:	e8 2d c3 00 00       	call   10f530 <__ubsan_handle_type_mismatch>
  103203:	83 c4 10             	add    esp,0x10
  103206:	8b 54 24 0c          	mov    edx,DWORD PTR [esp+0xc]
  10320a:	e9 67 fa ff ff       	jmp    102c76 <_ZN4naos3HAL3IDT14InitExceptionsEv+0x1c56>
  10320f:	89 e8                	mov    eax,ebp
  103211:	01 d0                	add    eax,edx
  103213:	0f 82 3e fa ff ff    	jb     102c57 <_ZN4naos3HAL3IDT14InitExceptionsEv+0x1c37>
  103219:	89 54 24 0c          	mov    DWORD PTR [esp+0xc],edx
  10321d:	50                   	push   eax
  10321e:	50                   	push   eax
  10321f:	52                   	push   edx
  103220:	68 7c 85 11 00       	push   0x11857c
  103225:	e8 06 c3 00 00       	call   10f530 <__ubsan_handle_type_mismatch>
  10322a:	83 c4 10             	add    esp,0x10
  10322d:	8b 54 24 0c          	mov    edx,DWORD PTR [esp+0xc]
  103231:	e9 21 fa ff ff       	jmp    102c57 <_ZN4naos3HAL3IDT14InitExceptionsEv+0x1c37>
  103236:	05 ec d7 13 00       	add    eax,0x13d7ec
  10323b:	0f 82 f8 f9 ff ff    	jb     102c39 <_ZN4naos3HAL3IDT14InitExceptionsEv+0x1c19>
  103241:	50                   	push   eax
  103242:	50                   	push   eax
  103243:	68 ec d7 13 00       	push   0x13d7ec
  103248:	68 94 85 11 00       	push   0x118594
  10324d:	e8 de c2 00 00       	call   10f530 <__ubsan_handle_type_mismatch>
  103252:	83 c4 10             	add    esp,0x10
  103255:	e9 df f9 ff ff       	jmp    102c39 <_ZN4naos3HAL3IDT14InitExceptionsEv+0x1c19>
  10325a:	05 ee d7 13 00       	add    eax,0x13d7ee
  10325f:	0f 82 bc f9 ff ff    	jb     102c21 <_ZN4naos3HAL3IDT14InitExceptionsEv+0x1c01>
  103265:	50                   	push   eax
  103266:	50                   	push   eax
  103267:	68 ee d7 13 00       	push   0x13d7ee
  10326c:	68 ac 85 11 00       	push   0x1185ac
  103271:	e8 ba c2 00 00       	call   10f530 <__ubsan_handle_type_mismatch>
  103276:	83 c4 10             	add    esp,0x10
  103279:	e9 a3 f9 ff ff       	jmp    102c21 <_ZN4naos3HAL3IDT14InitExceptionsEv+0x1c01>
  10327e:	05 e8 d7 13 00       	add    eax,0x13d7e8
  103283:	0f 82 7d f9 ff ff    	jb     102c06 <_ZN4naos3HAL3IDT14InitExceptionsEv+0x1be6>
  103289:	50                   	push   eax
  10328a:	50                   	push   eax
  10328b:	68 e8 d7 13 00       	push   0x13d7e8
  103290:	68 c4 85 11 00       	push   0x1185c4
  103295:	e8 96 c2 00 00       	call   10f530 <__ubsan_handle_type_mismatch>
  10329a:	83 c4 10             	add    esp,0x10
  10329d:	e9 64 f9 ff ff       	jmp    102c06 <_ZN4naos3HAL3IDT14InitExceptionsEv+0x1be6>
  1032a2:	05 e2 d7 13 00       	add    eax,0x13d7e2
  1032a7:	0f 82 37 f9 ff ff    	jb     102be4 <_ZN4naos3HAL3IDT14InitExceptionsEv+0x1bc4>
  1032ad:	51                   	push   ecx
  1032ae:	51                   	push   ecx
  1032af:	68 e2 d7 13 00       	push   0x13d7e2
  1032b4:	68 dc 85 11 00       	push   0x1185dc
  1032b9:	e8 72 c2 00 00       	call   10f530 <__ubsan_handle_type_mismatch>
  1032be:	83 c4 10             	add    esp,0x10
  1032c1:	e9 1e f9 ff ff       	jmp    102be4 <_ZN4naos3HAL3IDT14InitExceptionsEv+0x1bc4>
  1032c6:	81 c5 e5 d7 13 00    	add    ebp,0x13d7e5
  1032cc:	39 ea                	cmp    edx,ebp
  1032ce:	0f 87 f8 f8 ff ff    	ja     102bcc <_ZN4naos3HAL3IDT14InitExceptionsEv+0x1bac>
  1032d4:	55                   	push   ebp
  1032d5:	55                   	push   ebp
  1032d6:	68 e5 d7 13 00       	push   0x13d7e5
  1032db:	68 f4 85 11 00       	push   0x1185f4
  1032e0:	e8 4b c2 00 00       	call   10f530 <__ubsan_handle_type_mismatch>
  1032e5:	83 c4 10             	add    esp,0x10
  1032e8:	e9 df f8 ff ff       	jmp    102bcc <_ZN4naos3HAL3IDT14InitExceptionsEv+0x1bac>
  1032ed:	8d 85 e5 d7 13 00    	lea    eax,[ebp+0x13d7e5]
  1032f3:	39 c2                	cmp    edx,eax
  1032f5:	0f 87 ac f8 ff ff    	ja     102ba7 <_ZN4naos3HAL3IDT14InitExceptionsEv+0x1b87>
  1032fb:	89 54 24 0c          	mov    DWORD PTR [esp+0xc],edx
  1032ff:	50                   	push   eax
  103300:	50                   	push   eax
  103301:	68 e5 d7 13 00       	push   0x13d7e5
  103306:	68 0c 86 11 00       	push   0x11860c
  10330b:	e8 20 c2 00 00       	call   10f530 <__ubsan_handle_type_mismatch>
  103310:	83 c4 10             	add    esp,0x10
  103313:	8b 54 24 0c          	mov    edx,DWORD PTR [esp+0xc]
  103317:	e9 8b f8 ff ff       	jmp    102ba7 <_ZN4naos3HAL3IDT14InitExceptionsEv+0x1b87>
  10331c:	8d 85 e5 d7 13 00    	lea    eax,[ebp+0x13d7e5]
  103322:	39 c2                	cmp    edx,eax
  103324:	0f 87 58 f8 ff ff    	ja     102b82 <_ZN4naos3HAL3IDT14InitExceptionsEv+0x1b62>
  10332a:	89 54 24 0c          	mov    DWORD PTR [esp+0xc],edx
  10332e:	50                   	push   eax
  10332f:	50                   	push   eax
  103330:	68 e5 d7 13 00       	push   0x13d7e5
  103335:	68 24 86 11 00       	push   0x118624
  10333a:	e8 f1 c1 00 00       	call   10f530 <__ubsan_handle_type_mismatch>
  10333f:	83 c4 10             	add    esp,0x10
  103342:	8b 54 24 0c          	mov    edx,DWORD PTR [esp+0xc]
  103346:	e9 37 f8 ff ff       	jmp    102b82 <_ZN4naos3HAL3IDT14InitExceptionsEv+0x1b62>
  10334b:	89 e8                	mov    eax,ebp
  10334d:	01 d0                	add    eax,edx
  10334f:	0f 82 0e f8 ff ff    	jb     102b63 <_ZN4naos3HAL3IDT14InitExceptionsEv+0x1b43>
  103355:	89 54 24 0c          	mov    DWORD PTR [esp+0xc],edx
  103359:	50                   	push   eax
  10335a:	50                   	push   eax
  10335b:	52                   	push   edx
  10335c:	68 3c 86 11 00       	push   0x11863c
  103361:	e8 ca c1 00 00       	call   10f530 <__ubsan_handle_type_mismatch>
  103366:	83 c4 10             	add    esp,0x10
  103369:	8b 54 24 0c          	mov    edx,DWORD PTR [esp+0xc]
  10336d:	e9 f1 f7 ff ff       	jmp    102b63 <_ZN4naos3HAL3IDT14InitExceptionsEv+0x1b43>
  103372:	05 e4 d7 13 00       	add    eax,0x13d7e4
  103377:	0f 82 c8 f7 ff ff    	jb     102b45 <_ZN4naos3HAL3IDT14InitExceptionsEv+0x1b25>
  10337d:	50                   	push   eax
  10337e:	50                   	push   eax
  10337f:	68 e4 d7 13 00       	push   0x13d7e4
  103384:	68 54 86 11 00       	push   0x118654
  103389:	e8 a2 c1 00 00       	call   10f530 <__ubsan_handle_type_mismatch>
  10338e:	83 c4 10             	add    esp,0x10
  103391:	e9 af f7 ff ff       	jmp    102b45 <_ZN4naos3HAL3IDT14InitExceptionsEv+0x1b25>
  103396:	05 e6 d7 13 00       	add    eax,0x13d7e6
  10339b:	0f 82 8c f7 ff ff    	jb     102b2d <_ZN4naos3HAL3IDT14InitExceptionsEv+0x1b0d>
  1033a1:	50                   	push   eax
  1033a2:	50                   	push   eax
  1033a3:	68 e6 d7 13 00       	push   0x13d7e6
  1033a8:	68 6c 86 11 00       	push   0x11866c
  1033ad:	e8 7e c1 00 00       	call   10f530 <__ubsan_handle_type_mismatch>
  1033b2:	83 c4 10             	add    esp,0x10
  1033b5:	e9 73 f7 ff ff       	jmp    102b2d <_ZN4naos3HAL3IDT14InitExceptionsEv+0x1b0d>
  1033ba:	05 e0 d7 13 00       	add    eax,0x13d7e0
  1033bf:	0f 82 4d f7 ff ff    	jb     102b12 <_ZN4naos3HAL3IDT14InitExceptionsEv+0x1af2>
  1033c5:	50                   	push   eax
  1033c6:	50                   	push   eax
  1033c7:	68 e0 d7 13 00       	push   0x13d7e0
  1033cc:	68 84 86 11 00       	push   0x118684
  1033d1:	e8 5a c1 00 00       	call   10f530 <__ubsan_handle_type_mismatch>
  1033d6:	83 c4 10             	add    esp,0x10
  1033d9:	e9 34 f7 ff ff       	jmp    102b12 <_ZN4naos3HAL3IDT14InitExceptionsEv+0x1af2>
  1033de:	05 da d7 13 00       	add    eax,0x13d7da
  1033e3:	0f 82 07 f7 ff ff    	jb     102af0 <_ZN4naos3HAL3IDT14InitExceptionsEv+0x1ad0>
  1033e9:	51                   	push   ecx
  1033ea:	51                   	push   ecx
  1033eb:	68 da d7 13 00       	push   0x13d7da
  1033f0:	68 9c 86 11 00       	push   0x11869c
  1033f5:	e8 36 c1 00 00       	call   10f530 <__ubsan_handle_type_mismatch>
  1033fa:	83 c4 10             	add    esp,0x10
  1033fd:	e9 ee f6 ff ff       	jmp    102af0 <_ZN4naos3HAL3IDT14InitExceptionsEv+0x1ad0>
  103402:	81 c5 dd d7 13 00    	add    ebp,0x13d7dd
  103408:	39 ea                	cmp    edx,ebp
  10340a:	0f 87 c8 f6 ff ff    	ja     102ad8 <_ZN4naos3HAL3IDT14InitExceptionsEv+0x1ab8>
  103410:	55                   	push   ebp
  103411:	55                   	push   ebp
  103412:	68 dd d7 13 00       	push   0x13d7dd
  103417:	68 b4 86 11 00       	push   0x1186b4
  10341c:	e8 0f c1 00 00       	call   10f530 <__ubsan_handle_type_mismatch>
  103421:	83 c4 10             	add    esp,0x10
  103424:	e9 af f6 ff ff       	jmp    102ad8 <_ZN4naos3HAL3IDT14InitExceptionsEv+0x1ab8>
  103429:	8d 85 dd d7 13 00    	lea    eax,[ebp+0x13d7dd]
  10342f:	39 c2                	cmp    edx,eax
  103431:	0f 87 7c f6 ff ff    	ja     102ab3 <_ZN4naos3HAL3IDT14InitExceptionsEv+0x1a93>
  103437:	89 54 24 0c          	mov    DWORD PTR [esp+0xc],edx
  10343b:	50                   	push   eax
  10343c:	50                   	push   eax
  10343d:	68 dd d7 13 00       	push   0x13d7dd
  103442:	68 cc 86 11 00       	push   0x1186cc
  103447:	e8 e4 c0 00 00       	call   10f530 <__ubsan_handle_type_mismatch>
  10344c:	83 c4 10             	add    esp,0x10
  10344f:	8b 54 24 0c          	mov    edx,DWORD PTR [esp+0xc]
  103453:	e9 5b f6 ff ff       	jmp    102ab3 <_ZN4naos3HAL3IDT14InitExceptionsEv+0x1a93>
  103458:	8d 85 dd d7 13 00    	lea    eax,[ebp+0x13d7dd]
  10345e:	39 c2                	cmp    edx,eax
  103460:	0f 87 28 f6 ff ff    	ja     102a8e <_ZN4naos3HAL3IDT14InitExceptionsEv+0x1a6e>
  103466:	89 54 24 0c          	mov    DWORD PTR [esp+0xc],edx
  10346a:	50                   	push   eax
  10346b:	50                   	push   eax
  10346c:	68 dd d7 13 00       	push   0x13d7dd
  103471:	68 e4 86 11 00       	push   0x1186e4
  103476:	e8 b5 c0 00 00       	call   10f530 <__ubsan_handle_type_mismatch>
  10347b:	83 c4 10             	add    esp,0x10
  10347e:	8b 54 24 0c          	mov    edx,DWORD PTR [esp+0xc]
  103482:	e9 07 f6 ff ff       	jmp    102a8e <_ZN4naos3HAL3IDT14InitExceptionsEv+0x1a6e>
  103487:	89 e8                	mov    eax,ebp
  103489:	01 d0                	add    eax,edx
  10348b:	0f 82 de f5 ff ff    	jb     102a6f <_ZN4naos3HAL3IDT14InitExceptionsEv+0x1a4f>
  103491:	89 54 24 0c          	mov    DWORD PTR [esp+0xc],edx
  103495:	50                   	push   eax
  103496:	50                   	push   eax
  103497:	52                   	push   edx
  103498:	68 fc 86 11 00       	push   0x1186fc
  10349d:	e8 8e c0 00 00       	call   10f530 <__ubsan_handle_type_mismatch>
  1034a2:	83 c4 10             	add    esp,0x10
  1034a5:	8b 54 24 0c          	mov    edx,DWORD PTR [esp+0xc]
  1034a9:	e9 c1 f5 ff ff       	jmp    102a6f <_ZN4naos3HAL3IDT14InitExceptionsEv+0x1a4f>
  1034ae:	05 dc d7 13 00       	add    eax,0x13d7dc
  1034b3:	0f 82 98 f5 ff ff    	jb     102a51 <_ZN4naos3HAL3IDT14InitExceptionsEv+0x1a31>
  1034b9:	50                   	push   eax
  1034ba:	50                   	push   eax
  1034bb:	68 dc d7 13 00       	push   0x13d7dc
  1034c0:	68 14 87 11 00       	push   0x118714
  1034c5:	e8 66 c0 00 00       	call   10f530 <__ubsan_handle_type_mismatch>
  1034ca:	83 c4 10             	add    esp,0x10
  1034cd:	e9 7f f5 ff ff       	jmp    102a51 <_ZN4naos3HAL3IDT14InitExceptionsEv+0x1a31>
  1034d2:	05 de d7 13 00       	add    eax,0x13d7de
  1034d7:	0f 82 5c f5 ff ff    	jb     102a39 <_ZN4naos3HAL3IDT14InitExceptionsEv+0x1a19>
  1034dd:	50                   	push   eax
  1034de:	50                   	push   eax
  1034df:	68 de d7 13 00       	push   0x13d7de
  1034e4:	68 2c 87 11 00       	push   0x11872c
  1034e9:	e8 42 c0 00 00       	call   10f530 <__ubsan_handle_type_mismatch>
  1034ee:	83 c4 10             	add    esp,0x10
  1034f1:	e9 43 f5 ff ff       	jmp    102a39 <_ZN4naos3HAL3IDT14InitExceptionsEv+0x1a19>
  1034f6:	05 d8 d7 13 00       	add    eax,0x13d7d8
  1034fb:	0f 82 1d f5 ff ff    	jb     102a1e <_ZN4naos3HAL3IDT14InitExceptionsEv+0x19fe>
  103501:	50                   	push   eax
  103502:	50                   	push   eax
  103503:	68 d8 d7 13 00       	push   0x13d7d8
  103508:	68 44 87 11 00       	push   0x118744
  10350d:	e8 1e c0 00 00       	call   10f530 <__ubsan_handle_type_mismatch>
  103512:	83 c4 10             	add    esp,0x10
  103515:	e9 04 f5 ff ff       	jmp    102a1e <_ZN4naos3HAL3IDT14InitExceptionsEv+0x19fe>
  10351a:	05 d2 d7 13 00       	add    eax,0x13d7d2
  10351f:	0f 82 d7 f4 ff ff    	jb     1029fc <_ZN4naos3HAL3IDT14InitExceptionsEv+0x19dc>
  103525:	51                   	push   ecx
  103526:	51                   	push   ecx
  103527:	68 d2 d7 13 00       	push   0x13d7d2
  10352c:	68 5c 87 11 00       	push   0x11875c
  103531:	e8 fa bf 00 00       	call   10f530 <__ubsan_handle_type_mismatch>
  103536:	83 c4 10             	add    esp,0x10
  103539:	e9 be f4 ff ff       	jmp    1029fc <_ZN4naos3HAL3IDT14InitExceptionsEv+0x19dc>
  10353e:	81 c5 d5 d7 13 00    	add    ebp,0x13d7d5
  103544:	39 ea                	cmp    edx,ebp
  103546:	0f 87 98 f4 ff ff    	ja     1029e4 <_ZN4naos3HAL3IDT14InitExceptionsEv+0x19c4>
  10354c:	55                   	push   ebp
  10354d:	55                   	push   ebp
  10354e:	68 d5 d7 13 00       	push   0x13d7d5
  103553:	68 74 87 11 00       	push   0x118774
  103558:	e8 d3 bf 00 00       	call   10f530 <__ubsan_handle_type_mismatch>
  10355d:	83 c4 10             	add    esp,0x10
  103560:	e9 7f f4 ff ff       	jmp    1029e4 <_ZN4naos3HAL3IDT14InitExceptionsEv+0x19c4>
  103565:	8d 85 d5 d7 13 00    	lea    eax,[ebp+0x13d7d5]
  10356b:	39 c2                	cmp    edx,eax
  10356d:	0f 87 4c f4 ff ff    	ja     1029bf <_ZN4naos3HAL3IDT14InitExceptionsEv+0x199f>
  103573:	89 54 24 0c          	mov    DWORD PTR [esp+0xc],edx
  103577:	50                   	push   eax
  103578:	50                   	push   eax
  103579:	68 d5 d7 13 00       	push   0x13d7d5
  10357e:	68 8c 87 11 00       	push   0x11878c
  103583:	e8 a8 bf 00 00       	call   10f530 <__ubsan_handle_type_mismatch>
  103588:	83 c4 10             	add    esp,0x10
  10358b:	8b 54 24 0c          	mov    edx,DWORD PTR [esp+0xc]
  10358f:	e9 2b f4 ff ff       	jmp    1029bf <_ZN4naos3HAL3IDT14InitExceptionsEv+0x199f>
  103594:	8d 85 d5 d7 13 00    	lea    eax,[ebp+0x13d7d5]
  10359a:	39 c2                	cmp    edx,eax
  10359c:	0f 87 f8 f3 ff ff    	ja     10299a <_ZN4naos3HAL3IDT14InitExceptionsEv+0x197a>
  1035a2:	89 54 24 0c          	mov    DWORD PTR [esp+0xc],edx
  1035a6:	50                   	push   eax
  1035a7:	50                   	push   eax
  1035a8:	68 d5 d7 13 00       	push   0x13d7d5
  1035ad:	68 a4 87 11 00       	push   0x1187a4
  1035b2:	e8 79 bf 00 00       	call   10f530 <__ubsan_handle_type_mismatch>
  1035b7:	83 c4 10             	add    esp,0x10
  1035ba:	8b 54 24 0c          	mov    edx,DWORD PTR [esp+0xc]
  1035be:	e9 d7 f3 ff ff       	jmp    10299a <_ZN4naos3HAL3IDT14InitExceptionsEv+0x197a>
  1035c3:	89 e8                	mov    eax,ebp
  1035c5:	01 d0                	add    eax,edx
  1035c7:	0f 82 ae f3 ff ff    	jb     10297b <_ZN4naos3HAL3IDT14InitExceptionsEv+0x195b>
  1035cd:	89 54 24 0c          	mov    DWORD PTR [esp+0xc],edx
  1035d1:	50                   	push   eax
  1035d2:	50                   	push   eax
  1035d3:	52                   	push   edx
  1035d4:	68 bc 87 11 00       	push   0x1187bc
  1035d9:	e8 52 bf 00 00       	call   10f530 <__ubsan_handle_type_mismatch>
  1035de:	83 c4 10             	add    esp,0x10
  1035e1:	8b 54 24 0c          	mov    edx,DWORD PTR [esp+0xc]
  1035e5:	e9 91 f3 ff ff       	jmp    10297b <_ZN4naos3HAL3IDT14InitExceptionsEv+0x195b>
  1035ea:	05 d4 d7 13 00       	add    eax,0x13d7d4
  1035ef:	0f 82 68 f3 ff ff    	jb     10295d <_ZN4naos3HAL3IDT14InitExceptionsEv+0x193d>
  1035f5:	50                   	push   eax
  1035f6:	50                   	push   eax
  1035f7:	68 d4 d7 13 00       	push   0x13d7d4
  1035fc:	68 d4 87 11 00       	push   0x1187d4
  103601:	e8 2a bf 00 00       	call   10f530 <__ubsan_handle_type_mismatch>
  103606:	83 c4 10             	add    esp,0x10
  103609:	e9 4f f3 ff ff       	jmp    10295d <_ZN4naos3HAL3IDT14InitExceptionsEv+0x193d>
  10360e:	05 d6 d7 13 00       	add    eax,0x13d7d6
  103613:	0f 82 2c f3 ff ff    	jb     102945 <_ZN4naos3HAL3IDT14InitExceptionsEv+0x1925>
  103619:	50                   	push   eax
  10361a:	50                   	push   eax
  10361b:	68 d6 d7 13 00       	push   0x13d7d6
  103620:	68 ec 87 11 00       	push   0x1187ec
  103625:	e8 06 bf 00 00       	call   10f530 <__ubsan_handle_type_mismatch>
  10362a:	83 c4 10             	add    esp,0x10
  10362d:	e9 13 f3 ff ff       	jmp    102945 <_ZN4naos3HAL3IDT14InitExceptionsEv+0x1925>
  103632:	05 d0 d7 13 00       	add    eax,0x13d7d0
  103637:	0f 82 ed f2 ff ff    	jb     10292a <_ZN4naos3HAL3IDT14InitExceptionsEv+0x190a>
  10363d:	50                   	push   eax
  10363e:	50                   	push   eax
  10363f:	68 d0 d7 13 00       	push   0x13d7d0
  103644:	68 04 88 11 00       	push   0x118804
  103649:	e8 e2 be 00 00       	call   10f530 <__ubsan_handle_type_mismatch>
  10364e:	83 c4 10             	add    esp,0x10
  103651:	e9 d4 f2 ff ff       	jmp    10292a <_ZN4naos3HAL3IDT14InitExceptionsEv+0x190a>
  103656:	05 ca d7 13 00       	add    eax,0x13d7ca
  10365b:	0f 82 a7 f2 ff ff    	jb     102908 <_ZN4naos3HAL3IDT14InitExceptionsEv+0x18e8>
  103661:	51                   	push   ecx
  103662:	51                   	push   ecx
  103663:	68 ca d7 13 00       	push   0x13d7ca
  103668:	68 1c 88 11 00       	push   0x11881c
  10366d:	e8 be be 00 00       	call   10f530 <__ubsan_handle_type_mismatch>
  103672:	83 c4 10             	add    esp,0x10
  103675:	e9 8e f2 ff ff       	jmp    102908 <_ZN4naos3HAL3IDT14InitExceptionsEv+0x18e8>
  10367a:	81 c5 cd d7 13 00    	add    ebp,0x13d7cd
  103680:	39 ea                	cmp    edx,ebp
  103682:	0f 87 68 f2 ff ff    	ja     1028f0 <_ZN4naos3HAL3IDT14InitExceptionsEv+0x18d0>
  103688:	55                   	push   ebp
  103689:	55                   	push   ebp
  10368a:	68 cd d7 13 00       	push   0x13d7cd
  10368f:	68 34 88 11 00       	push   0x118834
  103694:	e8 97 be 00 00       	call   10f530 <__ubsan_handle_type_mismatch>
  103699:	83 c4 10             	add    esp,0x10
  10369c:	e9 4f f2 ff ff       	jmp    1028f0 <_ZN4naos3HAL3IDT14InitExceptionsEv+0x18d0>
  1036a1:	8d 85 cd d7 13 00    	lea    eax,[ebp+0x13d7cd]
  1036a7:	39 c2                	cmp    edx,eax
  1036a9:	0f 87 1c f2 ff ff    	ja     1028cb <_ZN4naos3HAL3IDT14InitExceptionsEv+0x18ab>
  1036af:	89 54 24 0c          	mov    DWORD PTR [esp+0xc],edx
  1036b3:	50                   	push   eax
  1036b4:	50                   	push   eax
  1036b5:	68 cd d7 13 00       	push   0x13d7cd
  1036ba:	68 4c 88 11 00       	push   0x11884c
  1036bf:	e8 6c be 00 00       	call   10f530 <__ubsan_handle_type_mismatch>
  1036c4:	83 c4 10             	add    esp,0x10
  1036c7:	8b 54 24 0c          	mov    edx,DWORD PTR [esp+0xc]
  1036cb:	e9 fb f1 ff ff       	jmp    1028cb <_ZN4naos3HAL3IDT14InitExceptionsEv+0x18ab>
  1036d0:	8d 85 cd d7 13 00    	lea    eax,[ebp+0x13d7cd]
  1036d6:	39 c2                	cmp    edx,eax
  1036d8:	0f 87 c8 f1 ff ff    	ja     1028a6 <_ZN4naos3HAL3IDT14InitExceptionsEv+0x1886>
  1036de:	89 54 24 0c          	mov    DWORD PTR [esp+0xc],edx
  1036e2:	50                   	push   eax
  1036e3:	50                   	push   eax
  1036e4:	68 cd d7 13 00       	push   0x13d7cd
  1036e9:	68 64 88 11 00       	push   0x118864
  1036ee:	e8 3d be 00 00       	call   10f530 <__ubsan_handle_type_mismatch>
  1036f3:	83 c4 10             	add    esp,0x10
  1036f6:	8b 54 24 0c          	mov    edx,DWORD PTR [esp+0xc]
  1036fa:	e9 a7 f1 ff ff       	jmp    1028a6 <_ZN4naos3HAL3IDT14InitExceptionsEv+0x1886>
  1036ff:	89 e8                	mov    eax,ebp
  103701:	01 d0                	add    eax,edx
  103703:	0f 82 7e f1 ff ff    	jb     102887 <_ZN4naos3HAL3IDT14InitExceptionsEv+0x1867>
  103709:	89 54 24 0c          	mov    DWORD PTR [esp+0xc],edx
  10370d:	50                   	push   eax
  10370e:	50                   	push   eax
  10370f:	52                   	push   edx
  103710:	68 7c 88 11 00       	push   0x11887c
  103715:	e8 16 be 00 00       	call   10f530 <__ubsan_handle_type_mismatch>
  10371a:	83 c4 10             	add    esp,0x10
  10371d:	8b 54 24 0c          	mov    edx,DWORD PTR [esp+0xc]
  103721:	e9 61 f1 ff ff       	jmp    102887 <_ZN4naos3HAL3IDT14InitExceptionsEv+0x1867>
  103726:	05 cc d7 13 00       	add    eax,0x13d7cc
  10372b:	0f 82 38 f1 ff ff    	jb     102869 <_ZN4naos3HAL3IDT14InitExceptionsEv+0x1849>
  103731:	50                   	push   eax
  103732:	50                   	push   eax
  103733:	68 cc d7 13 00       	push   0x13d7cc
  103738:	68 94 88 11 00       	push   0x118894
  10373d:	e8 ee bd 00 00       	call   10f530 <__ubsan_handle_type_mismatch>
  103742:	83 c4 10             	add    esp,0x10
  103745:	e9 1f f1 ff ff       	jmp    102869 <_ZN4naos3HAL3IDT14InitExceptionsEv+0x1849>
  10374a:	05 ce d7 13 00       	add    eax,0x13d7ce
  10374f:	0f 82 fc f0 ff ff    	jb     102851 <_ZN4naos3HAL3IDT14InitExceptionsEv+0x1831>
  103755:	50                   	push   eax
  103756:	50                   	push   eax
  103757:	68 ce d7 13 00       	push   0x13d7ce
  10375c:	68 ac 88 11 00       	push   0x1188ac
  103761:	e8 ca bd 00 00       	call   10f530 <__ubsan_handle_type_mismatch>
  103766:	83 c4 10             	add    esp,0x10
  103769:	e9 e3 f0 ff ff       	jmp    102851 <_ZN4naos3HAL3IDT14InitExceptionsEv+0x1831>
  10376e:	05 c8 d7 13 00       	add    eax,0x13d7c8
  103773:	0f 82 bd f0 ff ff    	jb     102836 <_ZN4naos3HAL3IDT14InitExceptionsEv+0x1816>
  103779:	50                   	push   eax
  10377a:	50                   	push   eax
  10377b:	68 c8 d7 13 00       	push   0x13d7c8
  103780:	68 c4 88 11 00       	push   0x1188c4
  103785:	e8 a6 bd 00 00       	call   10f530 <__ubsan_handle_type_mismatch>
  10378a:	83 c4 10             	add    esp,0x10
  10378d:	e9 a4 f0 ff ff       	jmp    102836 <_ZN4naos3HAL3IDT14InitExceptionsEv+0x1816>
  103792:	05 c2 d7 13 00       	add    eax,0x13d7c2
  103797:	0f 82 77 f0 ff ff    	jb     102814 <_ZN4naos3HAL3IDT14InitExceptionsEv+0x17f4>
  10379d:	51                   	push   ecx
  10379e:	51                   	push   ecx
  10379f:	68 c2 d7 13 00       	push   0x13d7c2
  1037a4:	68 dc 88 11 00       	push   0x1188dc
  1037a9:	e8 82 bd 00 00       	call   10f530 <__ubsan_handle_type_mismatch>
  1037ae:	83 c4 10             	add    esp,0x10
  1037b1:	e9 5e f0 ff ff       	jmp    102814 <_ZN4naos3HAL3IDT14InitExceptionsEv+0x17f4>
  1037b6:	81 c5 c5 d7 13 00    	add    ebp,0x13d7c5
  1037bc:	39 ea                	cmp    edx,ebp
  1037be:	0f 87 38 f0 ff ff    	ja     1027fc <_ZN4naos3HAL3IDT14InitExceptionsEv+0x17dc>
  1037c4:	55                   	push   ebp
  1037c5:	55                   	push   ebp
  1037c6:	68 c5 d7 13 00       	push   0x13d7c5
  1037cb:	68 f4 88 11 00       	push   0x1188f4
  1037d0:	e8 5b bd 00 00       	call   10f530 <__ubsan_handle_type_mismatch>
  1037d5:	83 c4 10             	add    esp,0x10
  1037d8:	e9 1f f0 ff ff       	jmp    1027fc <_ZN4naos3HAL3IDT14InitExceptionsEv+0x17dc>
  1037dd:	8d 85 c5 d7 13 00    	lea    eax,[ebp+0x13d7c5]
  1037e3:	39 c2                	cmp    edx,eax
  1037e5:	0f 87 ec ef ff ff    	ja     1027d7 <_ZN4naos3HAL3IDT14InitExceptionsEv+0x17b7>
  1037eb:	89 54 24 0c          	mov    DWORD PTR [esp+0xc],edx
  1037ef:	50                   	push   eax
  1037f0:	50                   	push   eax
  1037f1:	68 c5 d7 13 00       	push   0x13d7c5
  1037f6:	68 0c 89 11 00       	push   0x11890c
  1037fb:	e8 30 bd 00 00       	call   10f530 <__ubsan_handle_type_mismatch>
  103800:	83 c4 10             	add    esp,0x10
  103803:	8b 54 24 0c          	mov    edx,DWORD PTR [esp+0xc]
  103807:	e9 cb ef ff ff       	jmp    1027d7 <_ZN4naos3HAL3IDT14InitExceptionsEv+0x17b7>
  10380c:	8d 85 c5 d7 13 00    	lea    eax,[ebp+0x13d7c5]
  103812:	39 c2                	cmp    edx,eax
  103814:	0f 87 98 ef ff ff    	ja     1027b2 <_ZN4naos3HAL3IDT14InitExceptionsEv+0x1792>
  10381a:	89 54 24 0c          	mov    DWORD PTR [esp+0xc],edx
  10381e:	50                   	push   eax
  10381f:	50                   	push   eax
  103820:	68 c5 d7 13 00       	push   0x13d7c5
  103825:	68 24 89 11 00       	push   0x118924
  10382a:	e8 01 bd 00 00       	call   10f530 <__ubsan_handle_type_mismatch>
  10382f:	83 c4 10             	add    esp,0x10
  103832:	8b 54 24 0c          	mov    edx,DWORD PTR [esp+0xc]
  103836:	e9 77 ef ff ff       	jmp    1027b2 <_ZN4naos3HAL3IDT14InitExceptionsEv+0x1792>
  10383b:	89 e8                	mov    eax,ebp
  10383d:	01 d0                	add    eax,edx
  10383f:	0f 82 4e ef ff ff    	jb     102793 <_ZN4naos3HAL3IDT14InitExceptionsEv+0x1773>
  103845:	89 54 24 0c          	mov    DWORD PTR [esp+0xc],edx
  103849:	50                   	push   eax
  10384a:	50                   	push   eax
  10384b:	52                   	push   edx
  10384c:	68 3c 89 11 00       	push   0x11893c
  103851:	e8 da bc 00 00       	call   10f530 <__ubsan_handle_type_mismatch>
  103856:	83 c4 10             	add    esp,0x10
  103859:	8b 54 24 0c          	mov    edx,DWORD PTR [esp+0xc]
  10385d:	e9 31 ef ff ff       	jmp    102793 <_ZN4naos3HAL3IDT14InitExceptionsEv+0x1773>
  103862:	05 c4 d7 13 00       	add    eax,0x13d7c4
  103867:	0f 82 08 ef ff ff    	jb     102775 <_ZN4naos3HAL3IDT14InitExceptionsEv+0x1755>
  10386d:	50                   	push   eax
  10386e:	50                   	push   eax
  10386f:	68 c4 d7 13 00       	push   0x13d7c4
  103874:	68 54 89 11 00       	push   0x118954
  103879:	e8 b2 bc 00 00       	call   10f530 <__ubsan_handle_type_mismatch>
  10387e:	83 c4 10             	add    esp,0x10
  103881:	e9 ef ee ff ff       	jmp    102775 <_ZN4naos3HAL3IDT14InitExceptionsEv+0x1755>
  103886:	05 c6 d7 13 00       	add    eax,0x13d7c6
  10388b:	0f 82 cc ee ff ff    	jb     10275d <_ZN4naos3HAL3IDT14InitExceptionsEv+0x173d>
  103891:	50                   	push   eax
  103892:	50                   	push   eax
  103893:	68 c6 d7 13 00       	push   0x13d7c6
  103898:	68 6c 89 11 00       	push   0x11896c
  10389d:	e8 8e bc 00 00       	call   10f530 <__ubsan_handle_type_mismatch>
  1038a2:	83 c4 10             	add    esp,0x10
  1038a5:	e9 b3 ee ff ff       	jmp    10275d <_ZN4naos3HAL3IDT14InitExceptionsEv+0x173d>
  1038aa:	05 c0 d7 13 00       	add    eax,0x13d7c0
  1038af:	0f 82 8d ee ff ff    	jb     102742 <_ZN4naos3HAL3IDT14InitExceptionsEv+0x1722>
  1038b5:	50                   	push   eax
  1038b6:	50                   	push   eax
  1038b7:	68 c0 d7 13 00       	push   0x13d7c0
  1038bc:	68 84 89 11 00       	push   0x118984
  1038c1:	e8 6a bc 00 00       	call   10f530 <__ubsan_handle_type_mismatch>
  1038c6:	83 c4 10             	add    esp,0x10
  1038c9:	e9 74 ee ff ff       	jmp    102742 <_ZN4naos3HAL3IDT14InitExceptionsEv+0x1722>
  1038ce:	05 ba d7 13 00       	add    eax,0x13d7ba
  1038d3:	0f 82 47 ee ff ff    	jb     102720 <_ZN4naos3HAL3IDT14InitExceptionsEv+0x1700>
  1038d9:	51                   	push   ecx
  1038da:	51                   	push   ecx
  1038db:	68 ba d7 13 00       	push   0x13d7ba
  1038e0:	68 9c 89 11 00       	push   0x11899c
  1038e5:	e8 46 bc 00 00       	call   10f530 <__ubsan_handle_type_mismatch>
  1038ea:	83 c4 10             	add    esp,0x10
  1038ed:	e9 2e ee ff ff       	jmp    102720 <_ZN4naos3HAL3IDT14InitExceptionsEv+0x1700>
  1038f2:	81 c5 bd d7 13 00    	add    ebp,0x13d7bd
  1038f8:	39 ea                	cmp    edx,ebp
  1038fa:	0f 87 08 ee ff ff    	ja     102708 <_ZN4naos3HAL3IDT14InitExceptionsEv+0x16e8>
  103900:	55                   	push   ebp
  103901:	55                   	push   ebp
  103902:	68 bd d7 13 00       	push   0x13d7bd
  103907:	68 b4 89 11 00       	push   0x1189b4
  10390c:	e8 1f bc 00 00       	call   10f530 <__ubsan_handle_type_mismatch>
  103911:	83 c4 10             	add    esp,0x10
  103914:	e9 ef ed ff ff       	jmp    102708 <_ZN4naos3HAL3IDT14InitExceptionsEv+0x16e8>
  103919:	8d 85 bd d7 13 00    	lea    eax,[ebp+0x13d7bd]
  10391f:	39 c2                	cmp    edx,eax
  103921:	0f 87 bc ed ff ff    	ja     1026e3 <_ZN4naos3HAL3IDT14InitExceptionsEv+0x16c3>
  103927:	89 54 24 0c          	mov    DWORD PTR [esp+0xc],edx
  10392b:	50                   	push   eax
  10392c:	50                   	push   eax
  10392d:	68 bd d7 13 00       	push   0x13d7bd
  103932:	68 cc 89 11 00       	push   0x1189cc
  103937:	e8 f4 bb 00 00       	call   10f530 <__ubsan_handle_type_mismatch>
  10393c:	83 c4 10             	add    esp,0x10
  10393f:	8b 54 24 0c          	mov    edx,DWORD PTR [esp+0xc]
  103943:	e9 9b ed ff ff       	jmp    1026e3 <_ZN4naos3HAL3IDT14InitExceptionsEv+0x16c3>
  103948:	8d 85 bd d7 13 00    	lea    eax,[ebp+0x13d7bd]
  10394e:	39 c2                	cmp    edx,eax
  103950:	0f 87 68 ed ff ff    	ja     1026be <_ZN4naos3HAL3IDT14InitExceptionsEv+0x169e>
  103956:	89 54 24 0c          	mov    DWORD PTR [esp+0xc],edx
  10395a:	50                   	push   eax
  10395b:	50                   	push   eax
  10395c:	68 bd d7 13 00       	push   0x13d7bd
  103961:	68 e4 89 11 00       	push   0x1189e4
  103966:	e8 c5 bb 00 00       	call   10f530 <__ubsan_handle_type_mismatch>
  10396b:	83 c4 10             	add    esp,0x10
  10396e:	8b 54 24 0c          	mov    edx,DWORD PTR [esp+0xc]
  103972:	e9 47 ed ff ff       	jmp    1026be <_ZN4naos3HAL3IDT14InitExceptionsEv+0x169e>
  103977:	89 e8                	mov    eax,ebp
  103979:	01 d0                	add    eax,edx
  10397b:	0f 82 1e ed ff ff    	jb     10269f <_ZN4naos3HAL3IDT14InitExceptionsEv+0x167f>
  103981:	89 54 24 0c          	mov    DWORD PTR [esp+0xc],edx
  103985:	50                   	push   eax
  103986:	50                   	push   eax
  103987:	52                   	push   edx
  103988:	68 fc 89 11 00       	push   0x1189fc
  10398d:	e8 9e bb 00 00       	call   10f530 <__ubsan_handle_type_mismatch>
  103992:	83 c4 10             	add    esp,0x10
  103995:	8b 54 24 0c          	mov    edx,DWORD PTR [esp+0xc]
  103999:	e9 01 ed ff ff       	jmp    10269f <_ZN4naos3HAL3IDT14InitExceptionsEv+0x167f>
  10399e:	05 bc d7 13 00       	add    eax,0x13d7bc
  1039a3:	0f 82 d8 ec ff ff    	jb     102681 <_ZN4naos3HAL3IDT14InitExceptionsEv+0x1661>
  1039a9:	50                   	push   eax
  1039aa:	50                   	push   eax
  1039ab:	68 bc d7 13 00       	push   0x13d7bc
  1039b0:	68 14 8a 11 00       	push   0x118a14
  1039b5:	e8 76 bb 00 00       	call   10f530 <__ubsan_handle_type_mismatch>
  1039ba:	83 c4 10             	add    esp,0x10
  1039bd:	e9 bf ec ff ff       	jmp    102681 <_ZN4naos3HAL3IDT14InitExceptionsEv+0x1661>
  1039c2:	05 be d7 13 00       	add    eax,0x13d7be
  1039c7:	0f 82 9c ec ff ff    	jb     102669 <_ZN4naos3HAL3IDT14InitExceptionsEv+0x1649>
  1039cd:	50                   	push   eax
  1039ce:	50                   	push   eax
  1039cf:	68 be d7 13 00       	push   0x13d7be
  1039d4:	68 2c 8a 11 00       	push   0x118a2c
  1039d9:	e8 52 bb 00 00       	call   10f530 <__ubsan_handle_type_mismatch>
  1039de:	83 c4 10             	add    esp,0x10
  1039e1:	e9 83 ec ff ff       	jmp    102669 <_ZN4naos3HAL3IDT14InitExceptionsEv+0x1649>
  1039e6:	05 b8 d7 13 00       	add    eax,0x13d7b8
  1039eb:	0f 82 5d ec ff ff    	jb     10264e <_ZN4naos3HAL3IDT14InitExceptionsEv+0x162e>
  1039f1:	50                   	push   eax
  1039f2:	50                   	push   eax
  1039f3:	68 b8 d7 13 00       	push   0x13d7b8
  1039f8:	68 44 8a 11 00       	push   0x118a44
  1039fd:	e8 2e bb 00 00       	call   10f530 <__ubsan_handle_type_mismatch>
  103a02:	83 c4 10             	add    esp,0x10
  103a05:	e9 44 ec ff ff       	jmp    10264e <_ZN4naos3HAL3IDT14InitExceptionsEv+0x162e>
  103a0a:	05 b2 d7 13 00       	add    eax,0x13d7b2
  103a0f:	0f 82 17 ec ff ff    	jb     10262c <_ZN4naos3HAL3IDT14InitExceptionsEv+0x160c>
  103a15:	51                   	push   ecx
  103a16:	51                   	push   ecx
  103a17:	68 b2 d7 13 00       	push   0x13d7b2
  103a1c:	68 5c 8a 11 00       	push   0x118a5c
  103a21:	e8 0a bb 00 00       	call   10f530 <__ubsan_handle_type_mismatch>
  103a26:	83 c4 10             	add    esp,0x10
  103a29:	e9 fe eb ff ff       	jmp    10262c <_ZN4naos3HAL3IDT14InitExceptionsEv+0x160c>
  103a2e:	81 c5 b5 d7 13 00    	add    ebp,0x13d7b5
  103a34:	39 ea                	cmp    edx,ebp
  103a36:	0f 87 d8 eb ff ff    	ja     102614 <_ZN4naos3HAL3IDT14InitExceptionsEv+0x15f4>
  103a3c:	55                   	push   ebp
  103a3d:	55                   	push   ebp
  103a3e:	68 b5 d7 13 00       	push   0x13d7b5
  103a43:	68 74 8a 11 00       	push   0x118a74
  103a48:	e8 e3 ba 00 00       	call   10f530 <__ubsan_handle_type_mismatch>
  103a4d:	83 c4 10             	add    esp,0x10
  103a50:	e9 bf eb ff ff       	jmp    102614 <_ZN4naos3HAL3IDT14InitExceptionsEv+0x15f4>
  103a55:	8d 85 b5 d7 13 00    	lea    eax,[ebp+0x13d7b5]
  103a5b:	39 c2                	cmp    edx,eax
  103a5d:	0f 87 8c eb ff ff    	ja     1025ef <_ZN4naos3HAL3IDT14InitExceptionsEv+0x15cf>
  103a63:	89 54 24 0c          	mov    DWORD PTR [esp+0xc],edx
  103a67:	50                   	push   eax
  103a68:	50                   	push   eax
  103a69:	68 b5 d7 13 00       	push   0x13d7b5
  103a6e:	68 8c 8a 11 00       	push   0x118a8c
  103a73:	e8 b8 ba 00 00       	call   10f530 <__ubsan_handle_type_mismatch>
  103a78:	83 c4 10             	add    esp,0x10
  103a7b:	8b 54 24 0c          	mov    edx,DWORD PTR [esp+0xc]
  103a7f:	e9 6b eb ff ff       	jmp    1025ef <_ZN4naos3HAL3IDT14InitExceptionsEv+0x15cf>
  103a84:	8d 85 b5 d7 13 00    	lea    eax,[ebp+0x13d7b5]
  103a8a:	39 c2                	cmp    edx,eax
  103a8c:	0f 87 38 eb ff ff    	ja     1025ca <_ZN4naos3HAL3IDT14InitExceptionsEv+0x15aa>
  103a92:	89 54 24 0c          	mov    DWORD PTR [esp+0xc],edx
  103a96:	50                   	push   eax
  103a97:	50                   	push   eax
  103a98:	68 b5 d7 13 00       	push   0x13d7b5
  103a9d:	68 a4 8a 11 00       	push   0x118aa4
  103aa2:	e8 89 ba 00 00       	call   10f530 <__ubsan_handle_type_mismatch>
  103aa7:	83 c4 10             	add    esp,0x10
  103aaa:	8b 54 24 0c          	mov    edx,DWORD PTR [esp+0xc]
  103aae:	e9 17 eb ff ff       	jmp    1025ca <_ZN4naos3HAL3IDT14InitExceptionsEv+0x15aa>
  103ab3:	89 e8                	mov    eax,ebp
  103ab5:	01 d0                	add    eax,edx
  103ab7:	0f 82 ee ea ff ff    	jb     1025ab <_ZN4naos3HAL3IDT14InitExceptionsEv+0x158b>
  103abd:	89 54 24 0c          	mov    DWORD PTR [esp+0xc],edx
  103ac1:	50                   	push   eax
  103ac2:	50                   	push   eax
  103ac3:	52                   	push   edx
  103ac4:	68 bc 8a 11 00       	push   0x118abc
  103ac9:	e8 62 ba 00 00       	call   10f530 <__ubsan_handle_type_mismatch>
  103ace:	83 c4 10             	add    esp,0x10
  103ad1:	8b 54 24 0c          	mov    edx,DWORD PTR [esp+0xc]
  103ad5:	e9 d1 ea ff ff       	jmp    1025ab <_ZN4naos3HAL3IDT14InitExceptionsEv+0x158b>
  103ada:	05 b4 d7 13 00       	add    eax,0x13d7b4
  103adf:	0f 82 a8 ea ff ff    	jb     10258d <_ZN4naos3HAL3IDT14InitExceptionsEv+0x156d>
  103ae5:	50                   	push   eax
  103ae6:	50                   	push   eax
  103ae7:	68 b4 d7 13 00       	push   0x13d7b4
  103aec:	68 d4 8a 11 00       	push   0x118ad4
  103af1:	e8 3a ba 00 00       	call   10f530 <__ubsan_handle_type_mismatch>
  103af6:	83 c4 10             	add    esp,0x10
  103af9:	e9 8f ea ff ff       	jmp    10258d <_ZN4naos3HAL3IDT14InitExceptionsEv+0x156d>
  103afe:	05 b6 d7 13 00       	add    eax,0x13d7b6
  103b03:	0f 82 6c ea ff ff    	jb     102575 <_ZN4naos3HAL3IDT14InitExceptionsEv+0x1555>
  103b09:	50                   	push   eax
  103b0a:	50                   	push   eax
  103b0b:	68 b6 d7 13 00       	push   0x13d7b6
  103b10:	68 ec 8a 11 00       	push   0x118aec
  103b15:	e8 16 ba 00 00       	call   10f530 <__ubsan_handle_type_mismatch>
  103b1a:	83 c4 10             	add    esp,0x10
  103b1d:	e9 53 ea ff ff       	jmp    102575 <_ZN4naos3HAL3IDT14InitExceptionsEv+0x1555>
  103b22:	05 b0 d7 13 00       	add    eax,0x13d7b0
  103b27:	0f 82 2d ea ff ff    	jb     10255a <_ZN4naos3HAL3IDT14InitExceptionsEv+0x153a>
  103b2d:	50                   	push   eax
  103b2e:	50                   	push   eax
  103b2f:	68 b0 d7 13 00       	push   0x13d7b0
  103b34:	68 04 8b 11 00       	push   0x118b04
  103b39:	e8 f2 b9 00 00       	call   10f530 <__ubsan_handle_type_mismatch>
  103b3e:	83 c4 10             	add    esp,0x10
  103b41:	e9 14 ea ff ff       	jmp    10255a <_ZN4naos3HAL3IDT14InitExceptionsEv+0x153a>
  103b46:	05 aa d7 13 00       	add    eax,0x13d7aa
  103b4b:	0f 82 e7 e9 ff ff    	jb     102538 <_ZN4naos3HAL3IDT14InitExceptionsEv+0x1518>
  103b51:	51                   	push   ecx
  103b52:	51                   	push   ecx
  103b53:	68 aa d7 13 00       	push   0x13d7aa
  103b58:	68 1c 8b 11 00       	push   0x118b1c
  103b5d:	e8 ce b9 00 00       	call   10f530 <__ubsan_handle_type_mismatch>
  103b62:	83 c4 10             	add    esp,0x10
  103b65:	e9 ce e9 ff ff       	jmp    102538 <_ZN4naos3HAL3IDT14InitExceptionsEv+0x1518>
  103b6a:	81 c5 ad d7 13 00    	add    ebp,0x13d7ad
  103b70:	39 ea                	cmp    edx,ebp
  103b72:	0f 87 a8 e9 ff ff    	ja     102520 <_ZN4naos3HAL3IDT14InitExceptionsEv+0x1500>
  103b78:	55                   	push   ebp
  103b79:	55                   	push   ebp
  103b7a:	68 ad d7 13 00       	push   0x13d7ad
  103b7f:	68 34 8b 11 00       	push   0x118b34
  103b84:	e8 a7 b9 00 00       	call   10f530 <__ubsan_handle_type_mismatch>
  103b89:	83 c4 10             	add    esp,0x10
  103b8c:	e9 8f e9 ff ff       	jmp    102520 <_ZN4naos3HAL3IDT14InitExceptionsEv+0x1500>
  103b91:	8d 85 ad d7 13 00    	lea    eax,[ebp+0x13d7ad]
  103b97:	39 c2                	cmp    edx,eax
  103b99:	0f 87 5c e9 ff ff    	ja     1024fb <_ZN4naos3HAL3IDT14InitExceptionsEv+0x14db>
  103b9f:	89 54 24 0c          	mov    DWORD PTR [esp+0xc],edx
  103ba3:	50                   	push   eax
  103ba4:	50                   	push   eax
  103ba5:	68 ad d7 13 00       	push   0x13d7ad
  103baa:	68 4c 8b 11 00       	push   0x118b4c
  103baf:	e8 7c b9 00 00       	call   10f530 <__ubsan_handle_type_mismatch>
  103bb4:	83 c4 10             	add    esp,0x10
  103bb7:	8b 54 24 0c          	mov    edx,DWORD PTR [esp+0xc]
  103bbb:	e9 3b e9 ff ff       	jmp    1024fb <_ZN4naos3HAL3IDT14InitExceptionsEv+0x14db>
  103bc0:	8d 85 ad d7 13 00    	lea    eax,[ebp+0x13d7ad]
  103bc6:	39 c2                	cmp    edx,eax
  103bc8:	0f 87 08 e9 ff ff    	ja     1024d6 <_ZN4naos3HAL3IDT14InitExceptionsEv+0x14b6>
  103bce:	89 54 24 0c          	mov    DWORD PTR [esp+0xc],edx
  103bd2:	50                   	push   eax
  103bd3:	50                   	push   eax
  103bd4:	68 ad d7 13 00       	push   0x13d7ad
  103bd9:	68 64 8b 11 00       	push   0x118b64
  103bde:	e8 4d b9 00 00       	call   10f530 <__ubsan_handle_type_mismatch>
  103be3:	83 c4 10             	add    esp,0x10
  103be6:	8b 54 24 0c          	mov    edx,DWORD PTR [esp+0xc]
  103bea:	e9 e7 e8 ff ff       	jmp    1024d6 <_ZN4naos3HAL3IDT14InitExceptionsEv+0x14b6>
  103bef:	89 e8                	mov    eax,ebp
  103bf1:	01 d0                	add    eax,edx
  103bf3:	0f 82 be e8 ff ff    	jb     1024b7 <_ZN4naos3HAL3IDT14InitExceptionsEv+0x1497>
  103bf9:	89 54 24 0c          	mov    DWORD PTR [esp+0xc],edx
  103bfd:	50                   	push   eax
  103bfe:	50                   	push   eax
  103bff:	52                   	push   edx
  103c00:	68 7c 8b 11 00       	push   0x118b7c
  103c05:	e8 26 b9 00 00       	call   10f530 <__ubsan_handle_type_mismatch>
  103c0a:	83 c4 10             	add    esp,0x10
  103c0d:	8b 54 24 0c          	mov    edx,DWORD PTR [esp+0xc]
  103c11:	e9 a1 e8 ff ff       	jmp    1024b7 <_ZN4naos3HAL3IDT14InitExceptionsEv+0x1497>
  103c16:	05 ac d7 13 00       	add    eax,0x13d7ac
  103c1b:	0f 82 78 e8 ff ff    	jb     102499 <_ZN4naos3HAL3IDT14InitExceptionsEv+0x1479>
  103c21:	50                   	push   eax
  103c22:	50                   	push   eax
  103c23:	68 ac d7 13 00       	push   0x13d7ac
  103c28:	68 94 8b 11 00       	push   0x118b94
  103c2d:	e8 fe b8 00 00       	call   10f530 <__ubsan_handle_type_mismatch>
  103c32:	83 c4 10             	add    esp,0x10
  103c35:	e9 5f e8 ff ff       	jmp    102499 <_ZN4naos3HAL3IDT14InitExceptionsEv+0x1479>
  103c3a:	05 ae d7 13 00       	add    eax,0x13d7ae
  103c3f:	0f 82 3c e8 ff ff    	jb     102481 <_ZN4naos3HAL3IDT14InitExceptionsEv+0x1461>
  103c45:	50                   	push   eax
  103c46:	50                   	push   eax
  103c47:	68 ae d7 13 00       	push   0x13d7ae
  103c4c:	68 ac 8b 11 00       	push   0x118bac
  103c51:	e8 da b8 00 00       	call   10f530 <__ubsan_handle_type_mismatch>
  103c56:	83 c4 10             	add    esp,0x10
  103c59:	e9 23 e8 ff ff       	jmp    102481 <_ZN4naos3HAL3IDT14InitExceptionsEv+0x1461>
  103c5e:	05 a8 d7 13 00       	add    eax,0x13d7a8
  103c63:	0f 82 fd e7 ff ff    	jb     102466 <_ZN4naos3HAL3IDT14InitExceptionsEv+0x1446>
  103c69:	50                   	push   eax
  103c6a:	50                   	push   eax
  103c6b:	68 a8 d7 13 00       	push   0x13d7a8
  103c70:	68 c4 8b 11 00       	push   0x118bc4
  103c75:	e8 b6 b8 00 00       	call   10f530 <__ubsan_handle_type_mismatch>
  103c7a:	83 c4 10             	add    esp,0x10
  103c7d:	e9 e4 e7 ff ff       	jmp    102466 <_ZN4naos3HAL3IDT14InitExceptionsEv+0x1446>
  103c82:	05 a2 d7 13 00       	add    eax,0x13d7a2
  103c87:	0f 82 b7 e7 ff ff    	jb     102444 <_ZN4naos3HAL3IDT14InitExceptionsEv+0x1424>
  103c8d:	51                   	push   ecx
  103c8e:	51                   	push   ecx
  103c8f:	68 a2 d7 13 00       	push   0x13d7a2
  103c94:	68 dc 8b 11 00       	push   0x118bdc
  103c99:	e8 92 b8 00 00       	call   10f530 <__ubsan_handle_type_mismatch>
  103c9e:	83 c4 10             	add    esp,0x10
  103ca1:	e9 9e e7 ff ff       	jmp    102444 <_ZN4naos3HAL3IDT14InitExceptionsEv+0x1424>
  103ca6:	81 c5 a5 d7 13 00    	add    ebp,0x13d7a5
  103cac:	39 ea                	cmp    edx,ebp
  103cae:	0f 87 78 e7 ff ff    	ja     10242c <_ZN4naos3HAL3IDT14InitExceptionsEv+0x140c>
  103cb4:	55                   	push   ebp
  103cb5:	55                   	push   ebp
  103cb6:	68 a5 d7 13 00       	push   0x13d7a5
  103cbb:	68 f4 8b 11 00       	push   0x118bf4
  103cc0:	e8 6b b8 00 00       	call   10f530 <__ubsan_handle_type_mismatch>
  103cc5:	83 c4 10             	add    esp,0x10
  103cc8:	e9 5f e7 ff ff       	jmp    10242c <_ZN4naos3HAL3IDT14InitExceptionsEv+0x140c>
  103ccd:	8d 85 a5 d7 13 00    	lea    eax,[ebp+0x13d7a5]
  103cd3:	39 c2                	cmp    edx,eax
  103cd5:	0f 87 2c e7 ff ff    	ja     102407 <_ZN4naos3HAL3IDT14InitExceptionsEv+0x13e7>
  103cdb:	89 54 24 0c          	mov    DWORD PTR [esp+0xc],edx
  103cdf:	50                   	push   eax
  103ce0:	50                   	push   eax
  103ce1:	68 a5 d7 13 00       	push   0x13d7a5
  103ce6:	68 0c 8c 11 00       	push   0x118c0c
  103ceb:	e8 40 b8 00 00       	call   10f530 <__ubsan_handle_type_mismatch>
  103cf0:	83 c4 10             	add    esp,0x10
  103cf3:	8b 54 24 0c          	mov    edx,DWORD PTR [esp+0xc]
  103cf7:	e9 0b e7 ff ff       	jmp    102407 <_ZN4naos3HAL3IDT14InitExceptionsEv+0x13e7>
  103cfc:	8d 85 a5 d7 13 00    	lea    eax,[ebp+0x13d7a5]
  103d02:	39 c2                	cmp    edx,eax
  103d04:	0f 87 d8 e6 ff ff    	ja     1023e2 <_ZN4naos3HAL3IDT14InitExceptionsEv+0x13c2>
  103d0a:	89 54 24 0c          	mov    DWORD PTR [esp+0xc],edx
  103d0e:	50                   	push   eax
  103d0f:	50                   	push   eax
  103d10:	68 a5 d7 13 00       	push   0x13d7a5
  103d15:	68 24 8c 11 00       	push   0x118c24
  103d1a:	e8 11 b8 00 00       	call   10f530 <__ubsan_handle_type_mismatch>
  103d1f:	83 c4 10             	add    esp,0x10
  103d22:	8b 54 24 0c          	mov    edx,DWORD PTR [esp+0xc]
  103d26:	e9 b7 e6 ff ff       	jmp    1023e2 <_ZN4naos3HAL3IDT14InitExceptionsEv+0x13c2>
  103d2b:	89 e8                	mov    eax,ebp
  103d2d:	01 d0                	add    eax,edx
  103d2f:	0f 82 8e e6 ff ff    	jb     1023c3 <_ZN4naos3HAL3IDT14InitExceptionsEv+0x13a3>
  103d35:	89 54 24 0c          	mov    DWORD PTR [esp+0xc],edx
  103d39:	50                   	push   eax
  103d3a:	50                   	push   eax
  103d3b:	52                   	push   edx
  103d3c:	68 3c 8c 11 00       	push   0x118c3c
  103d41:	e8 ea b7 00 00       	call   10f530 <__ubsan_handle_type_mismatch>
  103d46:	83 c4 10             	add    esp,0x10
  103d49:	8b 54 24 0c          	mov    edx,DWORD PTR [esp+0xc]
  103d4d:	e9 71 e6 ff ff       	jmp    1023c3 <_ZN4naos3HAL3IDT14InitExceptionsEv+0x13a3>
  103d52:	05 a4 d7 13 00       	add    eax,0x13d7a4
  103d57:	0f 82 48 e6 ff ff    	jb     1023a5 <_ZN4naos3HAL3IDT14InitExceptionsEv+0x1385>
  103d5d:	50                   	push   eax
  103d5e:	50                   	push   eax
  103d5f:	68 a4 d7 13 00       	push   0x13d7a4
  103d64:	68 54 8c 11 00       	push   0x118c54
  103d69:	e8 c2 b7 00 00       	call   10f530 <__ubsan_handle_type_mismatch>
  103d6e:	83 c4 10             	add    esp,0x10
  103d71:	e9 2f e6 ff ff       	jmp    1023a5 <_ZN4naos3HAL3IDT14InitExceptionsEv+0x1385>
  103d76:	05 a6 d7 13 00       	add    eax,0x13d7a6
  103d7b:	0f 82 0c e6 ff ff    	jb     10238d <_ZN4naos3HAL3IDT14InitExceptionsEv+0x136d>
  103d81:	50                   	push   eax
  103d82:	50                   	push   eax
  103d83:	68 a6 d7 13 00       	push   0x13d7a6
  103d88:	68 6c 8c 11 00       	push   0x118c6c
  103d8d:	e8 9e b7 00 00       	call   10f530 <__ubsan_handle_type_mismatch>
  103d92:	83 c4 10             	add    esp,0x10
  103d95:	e9 f3 e5 ff ff       	jmp    10238d <_ZN4naos3HAL3IDT14InitExceptionsEv+0x136d>
  103d9a:	05 a0 d7 13 00       	add    eax,0x13d7a0
  103d9f:	0f 82 cd e5 ff ff    	jb     102372 <_ZN4naos3HAL3IDT14InitExceptionsEv+0x1352>
  103da5:	50                   	push   eax
  103da6:	50                   	push   eax
  103da7:	68 a0 d7 13 00       	push   0x13d7a0
  103dac:	68 84 8c 11 00       	push   0x118c84
  103db1:	e8 7a b7 00 00       	call   10f530 <__ubsan_handle_type_mismatch>
  103db6:	83 c4 10             	add    esp,0x10
  103db9:	e9 b4 e5 ff ff       	jmp    102372 <_ZN4naos3HAL3IDT14InitExceptionsEv+0x1352>
  103dbe:	05 9a d7 13 00       	add    eax,0x13d79a
  103dc3:	0f 82 87 e5 ff ff    	jb     102350 <_ZN4naos3HAL3IDT14InitExceptionsEv+0x1330>
  103dc9:	51                   	push   ecx
  103dca:	51                   	push   ecx
  103dcb:	68 9a d7 13 00       	push   0x13d79a
  103dd0:	68 9c 8c 11 00       	push   0x118c9c
  103dd5:	e8 56 b7 00 00       	call   10f530 <__ubsan_handle_type_mismatch>
  103dda:	83 c4 10             	add    esp,0x10
  103ddd:	e9 6e e5 ff ff       	jmp    102350 <_ZN4naos3HAL3IDT14InitExceptionsEv+0x1330>
  103de2:	81 c5 9d d7 13 00    	add    ebp,0x13d79d
  103de8:	39 ea                	cmp    edx,ebp
  103dea:	0f 87 48 e5 ff ff    	ja     102338 <_ZN4naos3HAL3IDT14InitExceptionsEv+0x1318>
  103df0:	55                   	push   ebp
  103df1:	55                   	push   ebp
  103df2:	68 9d d7 13 00       	push   0x13d79d
  103df7:	68 b4 8c 11 00       	push   0x118cb4
  103dfc:	e8 2f b7 00 00       	call   10f530 <__ubsan_handle_type_mismatch>
  103e01:	83 c4 10             	add    esp,0x10
  103e04:	e9 2f e5 ff ff       	jmp    102338 <_ZN4naos3HAL3IDT14InitExceptionsEv+0x1318>
  103e09:	8d 85 9d d7 13 00    	lea    eax,[ebp+0x13d79d]
  103e0f:	39 c2                	cmp    edx,eax
  103e11:	0f 87 fc e4 ff ff    	ja     102313 <_ZN4naos3HAL3IDT14InitExceptionsEv+0x12f3>
  103e17:	89 54 24 0c          	mov    DWORD PTR [esp+0xc],edx
  103e1b:	50                   	push   eax
  103e1c:	50                   	push   eax
  103e1d:	68 9d d7 13 00       	push   0x13d79d
  103e22:	68 cc 8c 11 00       	push   0x118ccc
  103e27:	e8 04 b7 00 00       	call   10f530 <__ubsan_handle_type_mismatch>
  103e2c:	83 c4 10             	add    esp,0x10
  103e2f:	8b 54 24 0c          	mov    edx,DWORD PTR [esp+0xc]
  103e33:	e9 db e4 ff ff       	jmp    102313 <_ZN4naos3HAL3IDT14InitExceptionsEv+0x12f3>
  103e38:	8d 85 9d d7 13 00    	lea    eax,[ebp+0x13d79d]
  103e3e:	39 c2                	cmp    edx,eax
  103e40:	0f 87 a8 e4 ff ff    	ja     1022ee <_ZN4naos3HAL3IDT14InitExceptionsEv+0x12ce>
  103e46:	89 54 24 0c          	mov    DWORD PTR [esp+0xc],edx
  103e4a:	50                   	push   eax
  103e4b:	50                   	push   eax
  103e4c:	68 9d d7 13 00       	push   0x13d79d
  103e51:	68 e4 8c 11 00       	push   0x118ce4
  103e56:	e8 d5 b6 00 00       	call   10f530 <__ubsan_handle_type_mismatch>
  103e5b:	83 c4 10             	add    esp,0x10
  103e5e:	8b 54 24 0c          	mov    edx,DWORD PTR [esp+0xc]
  103e62:	e9 87 e4 ff ff       	jmp    1022ee <_ZN4naos3HAL3IDT14InitExceptionsEv+0x12ce>
  103e67:	89 e8                	mov    eax,ebp
  103e69:	01 d0                	add    eax,edx
  103e6b:	0f 82 5e e4 ff ff    	jb     1022cf <_ZN4naos3HAL3IDT14InitExceptionsEv+0x12af>
  103e71:	89 54 24 0c          	mov    DWORD PTR [esp+0xc],edx
  103e75:	50                   	push   eax
  103e76:	50                   	push   eax
  103e77:	52                   	push   edx
  103e78:	68 fc 8c 11 00       	push   0x118cfc
  103e7d:	e8 ae b6 00 00       	call   10f530 <__ubsan_handle_type_mismatch>
  103e82:	83 c4 10             	add    esp,0x10
  103e85:	8b 54 24 0c          	mov    edx,DWORD PTR [esp+0xc]
  103e89:	e9 41 e4 ff ff       	jmp    1022cf <_ZN4naos3HAL3IDT14InitExceptionsEv+0x12af>
  103e8e:	05 9c d7 13 00       	add    eax,0x13d79c
  103e93:	0f 82 18 e4 ff ff    	jb     1022b1 <_ZN4naos3HAL3IDT14InitExceptionsEv+0x1291>
  103e99:	50                   	push   eax
  103e9a:	50                   	push   eax
  103e9b:	68 9c d7 13 00       	push   0x13d79c
  103ea0:	68 14 8d 11 00       	push   0x118d14
  103ea5:	e8 86 b6 00 00       	call   10f530 <__ubsan_handle_type_mismatch>
  103eaa:	83 c4 10             	add    esp,0x10
  103ead:	e9 ff e3 ff ff       	jmp    1022b1 <_ZN4naos3HAL3IDT14InitExceptionsEv+0x1291>
  103eb2:	05 9e d7 13 00       	add    eax,0x13d79e
  103eb7:	0f 82 dc e3 ff ff    	jb     102299 <_ZN4naos3HAL3IDT14InitExceptionsEv+0x1279>
  103ebd:	50                   	push   eax
  103ebe:	50                   	push   eax
  103ebf:	68 9e d7 13 00       	push   0x13d79e
  103ec4:	68 2c 8d 11 00       	push   0x118d2c
  103ec9:	e8 62 b6 00 00       	call   10f530 <__ubsan_handle_type_mismatch>
  103ece:	83 c4 10             	add    esp,0x10
  103ed1:	e9 c3 e3 ff ff       	jmp    102299 <_ZN4naos3HAL3IDT14InitExceptionsEv+0x1279>
  103ed6:	05 98 d7 13 00       	add    eax,0x13d798
  103edb:	0f 82 9d e3 ff ff    	jb     10227e <_ZN4naos3HAL3IDT14InitExceptionsEv+0x125e>
  103ee1:	50                   	push   eax
  103ee2:	50                   	push   eax
  103ee3:	68 98 d7 13 00       	push   0x13d798
  103ee8:	68 44 8d 11 00       	push   0x118d44
  103eed:	e8 3e b6 00 00       	call   10f530 <__ubsan_handle_type_mismatch>
  103ef2:	83 c4 10             	add    esp,0x10
  103ef5:	e9 84 e3 ff ff       	jmp    10227e <_ZN4naos3HAL3IDT14InitExceptionsEv+0x125e>
  103efa:	05 92 d7 13 00       	add    eax,0x13d792
  103eff:	0f 82 57 e3 ff ff    	jb     10225c <_ZN4naos3HAL3IDT14InitExceptionsEv+0x123c>
  103f05:	51                   	push   ecx
  103f06:	51                   	push   ecx
  103f07:	68 92 d7 13 00       	push   0x13d792
  103f0c:	68 5c 8d 11 00       	push   0x118d5c
  103f11:	e8 1a b6 00 00       	call   10f530 <__ubsan_handle_type_mismatch>
  103f16:	83 c4 10             	add    esp,0x10
  103f19:	e9 3e e3 ff ff       	jmp    10225c <_ZN4naos3HAL3IDT14InitExceptionsEv+0x123c>
  103f1e:	81 c5 95 d7 13 00    	add    ebp,0x13d795
  103f24:	39 ea                	cmp    edx,ebp
  103f26:	0f 87 18 e3 ff ff    	ja     102244 <_ZN4naos3HAL3IDT14InitExceptionsEv+0x1224>
  103f2c:	55                   	push   ebp
  103f2d:	55                   	push   ebp
  103f2e:	68 95 d7 13 00       	push   0x13d795
  103f33:	68 74 8d 11 00       	push   0x118d74
  103f38:	e8 f3 b5 00 00       	call   10f530 <__ubsan_handle_type_mismatch>
  103f3d:	83 c4 10             	add    esp,0x10
  103f40:	e9 ff e2 ff ff       	jmp    102244 <_ZN4naos3HAL3IDT14InitExceptionsEv+0x1224>
  103f45:	8d 85 95 d7 13 00    	lea    eax,[ebp+0x13d795]
  103f4b:	39 c2                	cmp    edx,eax
  103f4d:	0f 87 cc e2 ff ff    	ja     10221f <_ZN4naos3HAL3IDT14InitExceptionsEv+0x11ff>
  103f53:	89 54 24 0c          	mov    DWORD PTR [esp+0xc],edx
  103f57:	50                   	push   eax
  103f58:	50                   	push   eax
  103f59:	68 95 d7 13 00       	push   0x13d795
  103f5e:	68 8c 8d 11 00       	push   0x118d8c
  103f63:	e8 c8 b5 00 00       	call   10f530 <__ubsan_handle_type_mismatch>
  103f68:	83 c4 10             	add    esp,0x10
  103f6b:	8b 54 24 0c          	mov    edx,DWORD PTR [esp+0xc]
  103f6f:	e9 ab e2 ff ff       	jmp    10221f <_ZN4naos3HAL3IDT14InitExceptionsEv+0x11ff>
  103f74:	8d 85 95 d7 13 00    	lea    eax,[ebp+0x13d795]
  103f7a:	39 c2                	cmp    edx,eax
  103f7c:	0f 87 78 e2 ff ff    	ja     1021fa <_ZN4naos3HAL3IDT14InitExceptionsEv+0x11da>
  103f82:	89 54 24 0c          	mov    DWORD PTR [esp+0xc],edx
  103f86:	50                   	push   eax
  103f87:	50                   	push   eax
  103f88:	68 95 d7 13 00       	push   0x13d795
  103f8d:	68 a4 8d 11 00       	push   0x118da4
  103f92:	e8 99 b5 00 00       	call   10f530 <__ubsan_handle_type_mismatch>
  103f97:	83 c4 10             	add    esp,0x10
  103f9a:	8b 54 24 0c          	mov    edx,DWORD PTR [esp+0xc]
  103f9e:	e9 57 e2 ff ff       	jmp    1021fa <_ZN4naos3HAL3IDT14InitExceptionsEv+0x11da>
  103fa3:	89 e8                	mov    eax,ebp
  103fa5:	01 d0                	add    eax,edx
  103fa7:	0f 82 2e e2 ff ff    	jb     1021db <_ZN4naos3HAL3IDT14InitExceptionsEv+0x11bb>
  103fad:	89 54 24 0c          	mov    DWORD PTR [esp+0xc],edx
  103fb1:	50                   	push   eax
  103fb2:	50                   	push   eax
  103fb3:	52                   	push   edx
  103fb4:	68 bc 8d 11 00       	push   0x118dbc
  103fb9:	e8 72 b5 00 00       	call   10f530 <__ubsan_handle_type_mismatch>
  103fbe:	83 c4 10             	add    esp,0x10
  103fc1:	8b 54 24 0c          	mov    edx,DWORD PTR [esp+0xc]
  103fc5:	e9 11 e2 ff ff       	jmp    1021db <_ZN4naos3HAL3IDT14InitExceptionsEv+0x11bb>
  103fca:	05 94 d7 13 00       	add    eax,0x13d794
  103fcf:	0f 82 e8 e1 ff ff    	jb     1021bd <_ZN4naos3HAL3IDT14InitExceptionsEv+0x119d>
  103fd5:	50                   	push   eax
  103fd6:	50                   	push   eax
  103fd7:	68 94 d7 13 00       	push   0x13d794
  103fdc:	68 d4 8d 11 00       	push   0x118dd4
  103fe1:	e8 4a b5 00 00       	call   10f530 <__ubsan_handle_type_mismatch>
  103fe6:	83 c4 10             	add    esp,0x10
  103fe9:	e9 cf e1 ff ff       	jmp    1021bd <_ZN4naos3HAL3IDT14InitExceptionsEv+0x119d>
  103fee:	05 96 d7 13 00       	add    eax,0x13d796
  103ff3:	0f 82 ac e1 ff ff    	jb     1021a5 <_ZN4naos3HAL3IDT14InitExceptionsEv+0x1185>
  103ff9:	50                   	push   eax
  103ffa:	50                   	push   eax
  103ffb:	68 96 d7 13 00       	push   0x13d796
  104000:	68 ec 8d 11 00       	push   0x118dec
  104005:	e8 26 b5 00 00       	call   10f530 <__ubsan_handle_type_mismatch>
  10400a:	83 c4 10             	add    esp,0x10
  10400d:	e9 93 e1 ff ff       	jmp    1021a5 <_ZN4naos3HAL3IDT14InitExceptionsEv+0x1185>
  104012:	05 90 d7 13 00       	add    eax,0x13d790
  104017:	0f 82 6d e1 ff ff    	jb     10218a <_ZN4naos3HAL3IDT14InitExceptionsEv+0x116a>
  10401d:	50                   	push   eax
  10401e:	50                   	push   eax
  10401f:	68 90 d7 13 00       	push   0x13d790
  104024:	68 04 8e 11 00       	push   0x118e04
  104029:	e8 02 b5 00 00       	call   10f530 <__ubsan_handle_type_mismatch>
  10402e:	83 c4 10             	add    esp,0x10
  104031:	e9 54 e1 ff ff       	jmp    10218a <_ZN4naos3HAL3IDT14InitExceptionsEv+0x116a>
  104036:	05 8a d7 13 00       	add    eax,0x13d78a
  10403b:	0f 82 27 e1 ff ff    	jb     102168 <_ZN4naos3HAL3IDT14InitExceptionsEv+0x1148>
  104041:	51                   	push   ecx
  104042:	51                   	push   ecx
  104043:	68 8a d7 13 00       	push   0x13d78a
  104048:	68 1c 8e 11 00       	push   0x118e1c
  10404d:	e8 de b4 00 00       	call   10f530 <__ubsan_handle_type_mismatch>
  104052:	83 c4 10             	add    esp,0x10
  104055:	e9 0e e1 ff ff       	jmp    102168 <_ZN4naos3HAL3IDT14InitExceptionsEv+0x1148>
  10405a:	81 c5 8d d7 13 00    	add    ebp,0x13d78d
  104060:	39 ea                	cmp    edx,ebp
  104062:	0f 87 e8 e0 ff ff    	ja     102150 <_ZN4naos3HAL3IDT14InitExceptionsEv+0x1130>
  104068:	55                   	push   ebp
  104069:	55                   	push   ebp
  10406a:	68 8d d7 13 00       	push   0x13d78d
  10406f:	68 34 8e 11 00       	push   0x118e34
  104074:	e8 b7 b4 00 00       	call   10f530 <__ubsan_handle_type_mismatch>
  104079:	83 c4 10             	add    esp,0x10
  10407c:	e9 cf e0 ff ff       	jmp    102150 <_ZN4naos3HAL3IDT14InitExceptionsEv+0x1130>
  104081:	8d 85 8d d7 13 00    	lea    eax,[ebp+0x13d78d]
  104087:	39 c2                	cmp    edx,eax
  104089:	0f 87 9c e0 ff ff    	ja     10212b <_ZN4naos3HAL3IDT14InitExceptionsEv+0x110b>
